
code.elf:     file format elf32-littlearm

Disassembly of section .text:

00000000 <__vectors>:
       0:	e59ff018 	ldr	pc, [pc, #24]	; 20 <reset_addr>
       4:	e59ff018 	ldr	pc, [pc, #24]	; 24 <undef_addr>
       8:	e59ff018 	ldr	pc, [pc, #24]	; 28 <swi_addr>
       c:	e59ff018 	ldr	pc, [pc, #24]	; 2c <prefetch_addr>
      10:	e59ff018 	ldr	pc, [pc, #24]	; 30 <abort_addr>
      14:	e1a00000 	nop			(mov r0,r0)
      18:	e59ff014 	ldr	pc, [pc, #20]	; 34 <irq_addr>
      1c:	e59ff014 	ldr	pc, [pc, #20]	; 38 <fiq_addr>

00000020 <reset_addr>:
      20:	0000003c 	andeq	r0, r0, ip, lsr r0

00000024 <undef_addr>:
      24:	0000007c 	andeq	r0, r0, ip, ror r0

00000028 <swi_addr>:
      28:	00000000 	andeq	r0, r0, r0

0000002c <prefetch_addr>:
      2c:	0000007c 	andeq	r0, r0, ip, ror r0

00000030 <abort_addr>:
      30:	0000007c 	andeq	r0, r0, ip, ror r0

00000034 <irq_addr>:
      34:	0000007c 	andeq	r0, r0, ip, ror r0

00000038 <fiq_addr>:
      38:	0000007c 	andeq	r0, r0, ip, ror r0

0000003c <_start>:
      3c:	e321f0df 	msr	CPSR_c, #223	; 0xdf
      40:	e3a0d981 	mov	sp, #2113536	; 0x204000
      44:	eb000272 	bl	a14 <LowLevelInit>
      48:	e321f0d2 	msr	CPSR_c, #210	; 0xd2
      4c:	e59fd02c 	ldr	sp, [pc, #44]	; 80 <.text+0x80>
      50:	e321f0db 	msr	CPSR_c, #219	; 0xdb
      54:	e59fd028 	ldr	sp, [pc, #40]	; 84 <.text+0x84>
      58:	e321f0d1 	msr	CPSR_c, #209	; 0xd1
      5c:	e59fd024 	ldr	sp, [pc, #36]	; 88 <.text+0x88>
      60:	e321f0d7 	msr	CPSR_c, #215	; 0xd7
      64:	e59fd020 	ldr	sp, [pc, #32]	; 8c <.text+0x8c>
      68:	e321f0d3 	msr	CPSR_c, #211	; 0xd3
      6c:	e59fd01c 	ldr	sp, [pc, #28]	; 90 <.text+0x90>
      70:	e321f01f 	msr	CPSR_c, #31	; 0x1f
      74:	e3a0d981 	mov	sp, #2113536	; 0x204000
      78:	ea0001ec 	b	830 <main>

0000007c <abort_routine>:
      7c:	eafffffe 	b	7c <abort_routine>
      80:	00203bfc 	streqd	r3, [r0], -ip
      84:	002037fc 	streqd	r3, [r0], -ip
      88:	002033fc 	streqd	r3, [r0], -ip
      8c:	00202ffc 	streqd	r2, [r0], -ip
      90:	00202bfc 	streqd	r2, [r0], -ip

00000094 <drawmem>:
      94:	e1a0c00d 	mov	ip, sp
      98:	e92dd800 	stmdb	sp!, {fp, ip, lr, pc}
      9c:	e24cb004 	sub	fp, ip, #4	; 0x4
      a0:	e24dd010 	sub	sp, sp, #16	; 0x10
      a4:	e50b001c 	str	r0, [fp, #-28]
      a8:	e3a00004 	mov	r0, #4	; 0x4
      ac:	eb0003c9 	bl	fd8 <textbackground>
      b0:	e3a03000 	mov	r3, #0	; 0x0
      b4:	e50b3014 	str	r3, [fp, #-20]
      b8:	ea00006d 	b	274 <drawmem+0x1e0>
      bc:	e51b3014 	ldr	r3, [fp, #-20]
      c0:	e1a03203 	mov	r3, r3, lsl #4
      c4:	e1a02003 	mov	r2, r3
      c8:	e51b301c 	ldr	r3, [fp, #-28]
      cc:	e0823003 	add	r3, r2, r3
      d0:	e50b3018 	str	r3, [fp, #-24]
      d4:	e51b3014 	ldr	r3, [fp, #-20]
      d8:	e20330ff 	and	r3, r3, #255	; 0xff
      dc:	e2833002 	add	r3, r3, #2	; 0x2
      e0:	e20330ff 	and	r3, r3, #255	; 0xff
      e4:	e3a00001 	mov	r0, #1	; 0x1
      e8:	e1a01003 	mov	r1, r3
      ec:	eb0003ec 	bl	10a4 <gotoxy>
      f0:	e3a0000b 	mov	r0, #11	; 0xb
      f4:	eb000383 	bl	f08 <textcolor>
      f8:	e3a03008 	mov	r3, #8	; 0x8
      fc:	e50b3010 	str	r3, [fp, #-16]
     100:	e51b3010 	ldr	r3, [fp, #-16]
     104:	e2433001 	sub	r3, r3, #1	; 0x1
     108:	e50b3010 	str	r3, [fp, #-16]
     10c:	e51b2018 	ldr	r2, [fp, #-24]
     110:	e51b3010 	ldr	r3, [fp, #-16]
     114:	e1a03103 	mov	r3, r3, lsl #2
     118:	e1a03352 	mov	r3, r2, asr r3
     11c:	e203200f 	and	r2, r3, #15	; 0xf
     120:	e59f3170 	ldr	r3, [pc, #368]	; 298 <.text+0x298>
     124:	e7d33002 	ldrb	r3, [r3, r2]
     128:	e1a00003 	mov	r0, r3
     12c:	eb0002b9 	bl	c18 <_putch>
     130:	e51b3010 	ldr	r3, [fp, #-16]
     134:	e3530000 	cmp	r3, #0	; 0x0
     138:	cafffff0 	bgt	100 <drawmem+0x6c>
     13c:	e59f0158 	ldr	r0, [pc, #344]	; 29c <.text+0x29c>
     140:	eb000426 	bl	11e0 <_cputs>
     144:	e3a0000f 	mov	r0, #15	; 0xf
     148:	eb00036e 	bl	f08 <textcolor>
     14c:	e3a03000 	mov	r3, #0	; 0x0
     150:	e50b3010 	str	r3, [fp, #-16]
     154:	ea00001e 	b	1d4 <drawmem+0x140>
     158:	e51b3018 	ldr	r3, [fp, #-24]
     15c:	e5d33000 	ldrb	r3, [r3]
     160:	e1a03223 	mov	r3, r3, lsr #4
     164:	e20330ff 	and	r3, r3, #255	; 0xff
     168:	e1a02003 	mov	r2, r3
     16c:	e59f3124 	ldr	r3, [pc, #292]	; 298 <.text+0x298>
     170:	e7d33002 	ldrb	r3, [r3, r2]
     174:	e1a00003 	mov	r0, r3
     178:	eb0002a6 	bl	c18 <_putch>
     17c:	e51b3018 	ldr	r3, [fp, #-24]
     180:	e5d33000 	ldrb	r3, [r3]
     184:	e203200f 	and	r2, r3, #15	; 0xf
     188:	e59f3108 	ldr	r3, [pc, #264]	; 298 <.text+0x298>
     18c:	e7d33002 	ldrb	r3, [r3, r2]
     190:	e1a00003 	mov	r0, r3
     194:	eb00029f 	bl	c18 <_putch>
     198:	e51b3018 	ldr	r3, [fp, #-24]
     19c:	e2833001 	add	r3, r3, #1	; 0x1
     1a0:	e50b3018 	str	r3, [fp, #-24]
     1a4:	e3a00020 	mov	r0, #32	; 0x20
     1a8:	eb00029a 	bl	c18 <_putch>
     1ac:	e51b3010 	ldr	r3, [fp, #-16]
     1b0:	e3530007 	cmp	r3, #7	; 0x7
     1b4:	1a000003 	bne	1c8 <drawmem+0x134>
     1b8:	e3a0002d 	mov	r0, #45	; 0x2d
     1bc:	eb000295 	bl	c18 <_putch>
     1c0:	e3a00020 	mov	r0, #32	; 0x20
     1c4:	eb000293 	bl	c18 <_putch>
     1c8:	e51b3010 	ldr	r3, [fp, #-16]
     1cc:	e2833001 	add	r3, r3, #1	; 0x1
     1d0:	e50b3010 	str	r3, [fp, #-16]
     1d4:	e51b3010 	ldr	r3, [fp, #-16]
     1d8:	e353000f 	cmp	r3, #15	; 0xf
     1dc:	daffffdd 	ble	158 <drawmem+0xc4>
     1e0:	e3a000b3 	mov	r0, #179	; 0xb3
     1e4:	eb00028b 	bl	c18 <_putch>
     1e8:	e3a00020 	mov	r0, #32	; 0x20
     1ec:	eb000289 	bl	c18 <_putch>
     1f0:	e51b3014 	ldr	r3, [fp, #-20]
     1f4:	e1a03203 	mov	r3, r3, lsl #4
     1f8:	e1a02003 	mov	r2, r3
     1fc:	e51b301c 	ldr	r3, [fp, #-28]
     200:	e0823003 	add	r3, r2, r3
     204:	e50b3018 	str	r3, [fp, #-24]
     208:	e3a03000 	mov	r3, #0	; 0x0
     20c:	e50b3010 	str	r3, [fp, #-16]
     210:	ea000010 	b	258 <drawmem+0x1c4>
     214:	e51b3018 	ldr	r3, [fp, #-24]
     218:	e5d33000 	ldrb	r3, [r3]
     21c:	e353001f 	cmp	r3, #31	; 0x1f
     220:	9a000004 	bls	238 <drawmem+0x1a4>
     224:	e51b3018 	ldr	r3, [fp, #-24]
     228:	e5d33000 	ldrb	r3, [r3]
     22c:	e1a00003 	mov	r0, r3
     230:	eb000278 	bl	c18 <_putch>
     234:	ea000001 	b	240 <drawmem+0x1ac>
     238:	e3a0002e 	mov	r0, #46	; 0x2e
     23c:	eb000275 	bl	c18 <_putch>
     240:	e51b3018 	ldr	r3, [fp, #-24]
     244:	e2833001 	add	r3, r3, #1	; 0x1
     248:	e50b3018 	str	r3, [fp, #-24]
     24c:	e51b3010 	ldr	r3, [fp, #-16]
     250:	e2833001 	add	r3, r3, #1	; 0x1
     254:	e50b3010 	str	r3, [fp, #-16]
     258:	e51b3010 	ldr	r3, [fp, #-16]
     25c:	e353000f 	cmp	r3, #15	; 0xf
     260:	daffffeb 	ble	214 <drawmem+0x180>
     264:	eb000301 	bl	e70 <clreol>
     268:	e51b3014 	ldr	r3, [fp, #-20]
     26c:	e2833001 	add	r3, r3, #1	; 0x1
     270:	e50b3014 	str	r3, [fp, #-20]
     274:	e51b3014 	ldr	r3, [fp, #-20]
     278:	e3530016 	cmp	r3, #22	; 0x16
     27c:	ca000003 	bgt	290 <drawmem+0x1fc>
     280:	eb00027c 	bl	c78 <_kbhit>
     284:	e1a03000 	mov	r3, r0
     288:	e3530000 	cmp	r3, #0	; 0x0
     28c:	0affff8a 	beq	bc <drawmem+0x28>
     290:	e24bd00c 	sub	sp, fp, #12	; 0xc
     294:	e89da800 	ldmia	sp, {fp, sp, pc}
     298:	00002f9c 	muleq	r0, ip, pc
     29c:	00002fac 	andeq	r2, r0, ip, lsr #31

000002a0 <memviewer>:
     2a0:	e1a0c00d 	mov	ip, sp
     2a4:	e92dd800 	stmdb	sp!, {fp, ip, lr, pc}
     2a8:	e24cb004 	sub	fp, ip, #4	; 0x4
     2ac:	e24dd00c 	sub	sp, sp, #12	; 0xc
     2b0:	e50b0018 	str	r0, [fp, #-24]
     2b4:	e3a00047 	mov	r0, #71	; 0x47
     2b8:	eb00036b 	bl	106c <textattr>
     2bc:	eb0002df 	bl	e40 <clrscr>
     2c0:	e3a00000 	mov	r0, #0	; 0x0
     2c4:	eb00030f 	bl	f08 <textcolor>
     2c8:	e3a00006 	mov	r0, #6	; 0x6
     2cc:	eb000341 	bl	fd8 <textbackground>
     2d0:	e59f0114 	ldr	r0, [pc, #276]	; 3ec <.text+0x3ec>
     2d4:	eb0003c1 	bl	11e0 <_cputs>
     2d8:	eb0002e4 	bl	e70 <clreol>
     2dc:	eb0002fb 	bl	ed0 <cursoroff>
     2e0:	e59f0108 	ldr	r0, [pc, #264]	; 3f0 <.text+0x3f0>
     2e4:	eb00052f 	bl	17a8 <drawfkeys>
     2e8:	e51b3018 	ldr	r3, [fp, #-24]
     2ec:	e50b3010 	str	r3, [fp, #-16]
     2f0:	eaffffff 	b	2f4 <memviewer+0x54>
     2f4:	e51b0010 	ldr	r0, [fp, #-16]
     2f8:	ebffff65 	bl	94 <drawmem>
     2fc:	eb000266 	bl	c9c <_getch>
     300:	e1a03000 	mov	r3, r0
     304:	e50b3014 	str	r3, [fp, #-20]
     308:	e51b3014 	ldr	r3, [fp, #-20]
     30c:	e2433f51 	sub	r3, r3, #324	; 0x144
     310:	e353000d 	cmp	r3, #13	; 0xd
     314:	979ff103 	ldrls	pc, [pc, r3, lsl #2]
     318:	eafffff5 	b	2f4 <memviewer+0x54>
     31c:	000003e0 	andeq	r0, r0, r0, ror #7
     320:	000002f4 	streqd	r0, [r0], -r4
     324:	000002f4 	streqd	r0, [r0], -r4
     328:	000002f4 	streqd	r0, [r0], -r4
     32c:	00000380 	andeq	r0, r0, r0, lsl #7
     330:	000003ac 	andeq	r0, r0, ip, lsr #7
     334:	000002f4 	streqd	r0, [r0], -r4
     338:	00000354 	andeq	r0, r0, r4, asr r3
     33c:	000002f4 	streqd	r0, [r0], -r4
     340:	00000370 	andeq	r0, r0, r0, ror r3
     344:	000002f4 	streqd	r0, [r0], -r4
     348:	000002f4 	streqd	r0, [r0], -r4
     34c:	0000039c 	muleq	r0, ip, r3
     350:	000003d0 	ldreqd	r0, [r0], -r0
     354:	e51b3010 	ldr	r3, [fp, #-16]
     358:	e3530000 	cmp	r3, #0	; 0x0
     35c:	daffffe4 	ble	2f4 <memviewer+0x54>
     360:	e51b3010 	ldr	r3, [fp, #-16]
     364:	e2433001 	sub	r3, r3, #1	; 0x1
     368:	e50b3010 	str	r3, [fp, #-16]
     36c:	eaffffe0 	b	2f4 <memviewer+0x54>
     370:	e51b3010 	ldr	r3, [fp, #-16]
     374:	e2833001 	add	r3, r3, #1	; 0x1
     378:	e50b3010 	str	r3, [fp, #-16]
     37c:	eaffffdc 	b	2f4 <memviewer+0x54>
     380:	e51b3010 	ldr	r3, [fp, #-16]
     384:	e353000f 	cmp	r3, #15	; 0xf
     388:	9affffd9 	bls	2f4 <memviewer+0x54>
     38c:	e51b3010 	ldr	r3, [fp, #-16]
     390:	e2433010 	sub	r3, r3, #16	; 0x10
     394:	e50b3010 	str	r3, [fp, #-16]
     398:	eaffffd5 	b	2f4 <memviewer+0x54>
     39c:	e51b3010 	ldr	r3, [fp, #-16]
     3a0:	e2833010 	add	r3, r3, #16	; 0x10
     3a4:	e50b3010 	str	r3, [fp, #-16]
     3a8:	eaffffd1 	b	2f4 <memviewer+0x54>
     3ac:	e51b2010 	ldr	r2, [fp, #-16]
     3b0:	e3a03f5b 	mov	r3, #364	; 0x16c
     3b4:	e2833003 	add	r3, r3, #3	; 0x3
     3b8:	e1520003 	cmp	r2, r3
     3bc:	9affffcc 	bls	2f4 <memviewer+0x54>
     3c0:	e51b3010 	ldr	r3, [fp, #-16]
     3c4:	e2433e17 	sub	r3, r3, #368	; 0x170
     3c8:	e50b3010 	str	r3, [fp, #-16]
     3cc:	eaffffc8 	b	2f4 <memviewer+0x54>
     3d0:	e51b3010 	ldr	r3, [fp, #-16]
     3d4:	e2833e17 	add	r3, r3, #368	; 0x170
     3d8:	e50b3010 	str	r3, [fp, #-16]
     3dc:	eaffffc4 	b	2f4 <memviewer+0x54>
     3e0:	eb0002ac 	bl	e98 <cursoron>
     3e4:	e24bd00c 	sub	sp, fp, #12	; 0xc
     3e8:	e89da800 	ldmia	sp, {fp, sp, pc}
     3ec:	00002ecc 	andeq	r2, r0, ip, asr #29
     3f0:	00003344 	andeq	r3, r0, r4, asr #6

000003f4 <debugdemo>:
     3f4:	e1a0c00d 	mov	ip, sp
     3f8:	e92dd800 	stmdb	sp!, {fp, ip, lr, pc}
     3fc:	e24cb004 	sub	fp, ip, #4	; 0x4
     400:	e24dd004 	sub	sp, sp, #4	; 0x4
     404:	e3a00007 	mov	r0, #7	; 0x7
     408:	eb000317 	bl	106c <textattr>
     40c:	eb00028b 	bl	e40 <clrscr>
     410:	eaffffff 	b	414 <debugdemo+0x20>
     414:	e59f0050 	ldr	r0, [pc, #80]	; 46c <.text+0x46c>
     418:	eb000370 	bl	11e0 <_cputs>
     41c:	eb000215 	bl	c78 <_kbhit>
     420:	e1a03000 	mov	r3, r0
     424:	e3530000 	cmp	r3, #0	; 0x0
     428:	0afffff9 	beq	414 <debugdemo+0x20>
     42c:	eb00021a 	bl	c9c <_getch>
     430:	e1a03000 	mov	r3, r0
     434:	e50b3010 	str	r3, [fp, #-16]
     438:	e59f0030 	ldr	r0, [pc, #48]	; 470 <.text+0x470>
     43c:	eb000367 	bl	11e0 <_cputs>
     440:	e51b3010 	ldr	r3, [fp, #-16]
     444:	e20330ff 	and	r3, r3, #255	; 0xff
     448:	e1a00003 	mov	r0, r3
     44c:	eb0001f1 	bl	c18 <_putch>
     450:	e59f001c 	ldr	r0, [pc, #28]	; 474 <.text+0x474>
     454:	eb000361 	bl	11e0 <_cputs>
     458:	e51b3010 	ldr	r3, [fp, #-16]
     45c:	e353001b 	cmp	r3, #27	; 0x1b
     460:	0a000000 	beq	468 <debugdemo+0x74>
     464:	eaffffea 	b	414 <debugdemo+0x20>
     468:	e89da808 	ldmia	sp, {r3, fp, sp, pc}
     46c:	00002fb0 	streqh	r2, [r0], -r0
     470:	00002fc0 	andeq	r2, r0, r0, asr #31
     474:	00002fd8 	ldreqd	r2, [r0], -r8

00000478 <cli>:
     478:	e1a0c00d 	mov	ip, sp
     47c:	e92dd800 	stmdb	sp!, {fp, ip, lr, pc}
     480:	e24cb004 	sub	fp, ip, #4	; 0x4
     484:	e24dd02c 	sub	sp, sp, #44	; 0x2c
     488:	e3a00007 	mov	r0, #7	; 0x7
     48c:	eb0002f6 	bl	106c <textattr>
     490:	eb00026a 	bl	e40 <clrscr>
     494:	e3a03028 	mov	r3, #40	; 0x28
     498:	e54b3038 	strb	r3, [fp, #-56]
     49c:	e3a0000b 	mov	r0, #11	; 0xb
     4a0:	eb0002f1 	bl	106c <textattr>
     4a4:	e59f0088 	ldr	r0, [pc, #136]	; 534 <.text+0x534>
     4a8:	eb00034c 	bl	11e0 <_cputs>
     4ac:	e3a00007 	mov	r0, #7	; 0x7
     4b0:	eb0002ed 	bl	106c <textattr>
     4b4:	e24b3038 	sub	r3, fp, #56	; 0x38
     4b8:	e1a00003 	mov	r0, r3
     4bc:	eb00035a 	bl	122c <_cgets>
     4c0:	e1a03000 	mov	r3, r0
     4c4:	e50b3010 	str	r3, [fp, #-16]
     4c8:	e51b3010 	ldr	r3, [fp, #-16]
     4cc:	e3530000 	cmp	r3, #0	; 0x0
     4d0:	0a000008 	beq	4f8 <cli+0x80>
     4d4:	e51b3010 	ldr	r3, [fp, #-16]
     4d8:	e5d33000 	ldrb	r3, [r3]
     4dc:	e3530071 	cmp	r3, #113	; 0x71
     4e0:	1a000004 	bne	4f8 <cli+0x80>
     4e4:	e51b3010 	ldr	r3, [fp, #-16]
     4e8:	e2833001 	add	r3, r3, #1	; 0x1
     4ec:	e5d33000 	ldrb	r3, [r3]
     4f0:	e3530000 	cmp	r3, #0	; 0x0
     4f4:	0a00000c 	beq	52c <cli+0xb4>
     4f8:	e3a0000f 	mov	r0, #15	; 0xf
     4fc:	eb0002da 	bl	106c <textattr>
     500:	e59f0030 	ldr	r0, [pc, #48]	; 538 <.text+0x538>
     504:	eb000335 	bl	11e0 <_cputs>
     508:	e3a00009 	mov	r0, #9	; 0x9
     50c:	eb0002d6 	bl	106c <textattr>
     510:	e59f0024 	ldr	r0, [pc, #36]	; 53c <.text+0x53c>
     514:	eb000331 	bl	11e0 <_cputs>
     518:	e3a0000f 	mov	r0, #15	; 0xf
     51c:	eb0002d2 	bl	106c <textattr>
     520:	e59f0018 	ldr	r0, [pc, #24]	; 540 <.text+0x540>
     524:	eb00032d 	bl	11e0 <_cputs>
     528:	eaffffd9 	b	494 <cli+0x1c>
     52c:	e24bd00c 	sub	sp, fp, #12	; 0xc
     530:	e89da800 	ldmia	sp, {fp, sp, pc}
     534:	00002fdc 	ldreqd	r2, [r0], -ip
     538:	00002fe4 	andeq	r2, r0, r4, ror #31
     53c:	00003004 	andeq	r3, r0, r4
     540:	00003008 	andeq	r3, r0, r8

00000544 <speedtest>:
     544:	e1a0c00d 	mov	ip, sp
     548:	e92dd800 	stmdb	sp!, {fp, ip, lr, pc}
     54c:	e24cb004 	sub	fp, ip, #4	; 0x4
     550:	e24dd00c 	sub	sp, sp, #12	; 0xc
     554:	e3a00001 	mov	r0, #1	; 0x1
     558:	e3a01001 	mov	r1, #1	; 0x1
     55c:	eb0002d0 	bl	10a4 <gotoxy>
     560:	e3a0002b 	mov	r0, #43	; 0x2b
     564:	eb0002c0 	bl	106c <textattr>
     568:	e3a03000 	mov	r3, #0	; 0x0
     56c:	e50b3010 	str	r3, [fp, #-16]
     570:	ea000030 	b	638 <speedtest+0xf4>
     574:	e59f00d8 	ldr	r0, [pc, #216]	; 654 <.text+0x654>
     578:	eb000318 	bl	11e0 <_cputs>
     57c:	e51b2010 	ldr	r2, [fp, #-16]
     580:	e59f30d0 	ldr	r3, [pc, #208]	; 658 <.text+0x658>
     584:	e0831392 	umull	r1, r3, r2, r3
     588:	e1a026a3 	mov	r2, r3, lsr #13
     58c:	e59f30c8 	ldr	r3, [pc, #200]	; 65c <.text+0x65c>
     590:	e0831392 	umull	r1, r3, r2, r3
     594:	e1a031a3 	mov	r3, r3, lsr #3
     598:	e50b3018 	str	r3, [fp, #-24]
     59c:	e51b3018 	ldr	r3, [fp, #-24]
     5a0:	e1a03103 	mov	r3, r3, lsl #2
     5a4:	e51b1018 	ldr	r1, [fp, #-24]
     5a8:	e0833001 	add	r3, r3, r1
     5ac:	e1a03083 	mov	r3, r3, lsl #1
     5b0:	e0632002 	rsb	r2, r3, r2
     5b4:	e50b2018 	str	r2, [fp, #-24]
     5b8:	e51b2018 	ldr	r2, [fp, #-24]
     5bc:	e20230ff 	and	r3, r2, #255	; 0xff
     5c0:	e2833030 	add	r3, r3, #48	; 0x30
     5c4:	e20330ff 	and	r3, r3, #255	; 0xff
     5c8:	e1a00003 	mov	r0, r3
     5cc:	eb000191 	bl	c18 <_putch>
     5d0:	e51b2010 	ldr	r2, [fp, #-16]
     5d4:	e59f3084 	ldr	r3, [pc, #132]	; 660 <.text+0x660>
     5d8:	e0831392 	umull	r1, r3, r2, r3
     5dc:	e1a02323 	mov	r2, r3, lsr #6
     5e0:	e59f3074 	ldr	r3, [pc, #116]	; 65c <.text+0x65c>
     5e4:	e0831392 	umull	r1, r3, r2, r3
     5e8:	e1a031a3 	mov	r3, r3, lsr #3
     5ec:	e50b3014 	str	r3, [fp, #-20]
     5f0:	e51b3014 	ldr	r3, [fp, #-20]
     5f4:	e1a03103 	mov	r3, r3, lsl #2
     5f8:	e51b1014 	ldr	r1, [fp, #-20]
     5fc:	e0833001 	add	r3, r3, r1
     600:	e1a03083 	mov	r3, r3, lsl #1
     604:	e0632002 	rsb	r2, r3, r2
     608:	e50b2014 	str	r2, [fp, #-20]
     60c:	e51b2014 	ldr	r2, [fp, #-20]
     610:	e20230ff 	and	r3, r2, #255	; 0xff
     614:	e2833030 	add	r3, r3, #48	; 0x30
     618:	e20330ff 	and	r3, r3, #255	; 0xff
     61c:	e1a00003 	mov	r0, r3
     620:	eb00017c 	bl	c18 <_putch>
     624:	e59f0038 	ldr	r0, [pc, #56]	; 664 <.text+0x664>
     628:	eb0002ec 	bl	11e0 <_cputs>
     62c:	e51b3010 	ldr	r3, [fp, #-16]
     630:	e2833001 	add	r3, r3, #1	; 0x1
     634:	e50b3010 	str	r3, [fp, #-16]
     638:	e51b2010 	ldr	r2, [fp, #-16]
     63c:	e3a03cc3 	mov	r3, #49920	; 0xc300
     640:	e283304f 	add	r3, r3, #79	; 0x4f
     644:	e1520003 	cmp	r2, r3
     648:	9affffc9 	bls	574 <speedtest+0x30>
     64c:	e24bd00c 	sub	sp, fp, #12	; 0xc
     650:	e89da800 	ldmia	sp, {fp, sp, pc}
     654:	00003020 	andeq	r3, r0, r0, lsr #32
     658:	d1b71759 	movles	r1, r9, asr r7
     65c:	cccccccd 	stcgtl	12, cr12, [ip], {205}
     660:	10624dd3 	ldrned	r4, [r2], #-211
     664:	0000302c 	andeq	r3, r0, ip, lsr #32

00000668 <submenutest>:
     668:	e1a0c00d 	mov	ip, sp
     66c:	e92dd800 	stmdb	sp!, {fp, ip, lr, pc}
     670:	e24cb004 	sub	fp, ip, #4	; 0x4
     674:	e24dd004 	sub	sp, sp, #4	; 0x4
     678:	e3a03000 	mov	r3, #0	; 0x0
     67c:	e50b3010 	str	r3, [fp, #-16]
     680:	e3a00008 	mov	r0, #8	; 0x8
     684:	e3a0100a 	mov	r1, #10	; 0xa
     688:	e59f2020 	ldr	r2, [pc, #32]	; 6b0 <.text+0x6b0>
     68c:	e51b3010 	ldr	r3, [fp, #-16]
     690:	eb000340 	bl	1398 <runmenu>
     694:	e1a03000 	mov	r3, r0
     698:	e50b3010 	str	r3, [fp, #-16]
     69c:	e51b3010 	ldr	r3, [fp, #-16]
     6a0:	e3530000 	cmp	r3, #0	; 0x0
     6a4:	0a000000 	beq	6ac <submenutest+0x44>
     6a8:	eafffff4 	b	680 <submenutest+0x18>
     6ac:	e89da808 	ldmia	sp, {r3, fp, sp, pc}
     6b0:	0000338c 	andeq	r3, r0, ip, lsl #7

000006b4 <ascii_art>:
     6b4:	e1a0c00d 	mov	ip, sp
     6b8:	e92dd800 	stmdb	sp!, {fp, ip, lr, pc}
     6bc:	e24cb004 	sub	fp, ip, #4	; 0x4
     6c0:	e3a00007 	mov	r0, #7	; 0x7
     6c4:	eb000268 	bl	106c <textattr>
     6c8:	eb0001dc 	bl	e40 <clrscr>
     6cc:	e59f3018 	ldr	r3, [pc, #24]	; 6ec <.text+0x6ec>
     6d0:	e1a00003 	mov	r0, r3
     6d4:	eb0002c1 	bl	11e0 <_cputs>
     6d8:	eb00016f 	bl	c9c <_getch>
     6dc:	e1a03000 	mov	r3, r0
     6e0:	e353001b 	cmp	r3, #27	; 0x1b
     6e4:	1afffffb 	bne	6d8 <ascii_art+0x24>
     6e8:	e89da800 	ldmia	sp, {fp, sp, pc}
     6ec:	00001bcc 	andeq	r1, r0, ip, asr #23

000006f0 <testCGetS>:
     6f0:	e1a0c00d 	mov	ip, sp
     6f4:	e92dd800 	stmdb	sp!, {fp, ip, lr, pc}
     6f8:	e24cb004 	sub	fp, ip, #4	; 0x4
     6fc:	e24dd034 	sub	sp, sp, #52	; 0x34
     700:	e3a0301f 	mov	r3, #31	; 0x1f
     704:	e58d3000 	str	r3, [sp]
     708:	e3a0000a 	mov	r0, #10	; 0xa
     70c:	e3a0100a 	mov	r1, #10	; 0xa
     710:	e3a02028 	mov	r2, #40	; 0x28
     714:	e3a03009 	mov	r3, #9	; 0x9
     718:	eb000481 	bl	1924 <drawframe>
     71c:	e3a0000c 	mov	r0, #12	; 0xc
     720:	e3a0100c 	mov	r1, #12	; 0xc
     724:	eb00025e 	bl	10a4 <gotoxy>
     728:	e59f00f0 	ldr	r0, [pc, #240]	; 820 <.text+0x820>
     72c:	eb0002ab 	bl	11e0 <_cputs>
     730:	e3a0000c 	mov	r0, #12	; 0xc
     734:	e3a0100e 	mov	r1, #14	; 0xe
     738:	eb000259 	bl	10a4 <gotoxy>
     73c:	e3a0000f 	mov	r0, #15	; 0xf
     740:	eb000249 	bl	106c <textattr>
     744:	e3a03000 	mov	r3, #0	; 0x0
     748:	e50b3010 	str	r3, [fp, #-16]
     74c:	ea000004 	b	764 <testCGetS+0x74>
     750:	e3a00020 	mov	r0, #32	; 0x20
     754:	eb00012f 	bl	c18 <_putch>
     758:	e51b3010 	ldr	r3, [fp, #-16]
     75c:	e2833001 	add	r3, r3, #1	; 0x1
     760:	e50b3010 	str	r3, [fp, #-16]
     764:	e51b3010 	ldr	r3, [fp, #-16]
     768:	e3530027 	cmp	r3, #39	; 0x27
     76c:	dafffff7 	ble	750 <testCGetS+0x60>
     770:	e3a0000c 	mov	r0, #12	; 0xc
     774:	e3a0100e 	mov	r1, #14	; 0xe
     778:	eb000249 	bl	10a4 <gotoxy>
     77c:	e3a03028 	mov	r3, #40	; 0x28
     780:	e54b303c 	strb	r3, [fp, #-60]
     784:	e24b303c 	sub	r3, fp, #60	; 0x3c
     788:	e1a00003 	mov	r0, r3
     78c:	eb0002a6 	bl	122c <_cgets>
     790:	e1a03000 	mov	r3, r0
     794:	e50b3014 	str	r3, [fp, #-20]
     798:	e3a0000c 	mov	r0, #12	; 0xc
     79c:	e3a01010 	mov	r1, #16	; 0x10
     7a0:	eb00023f 	bl	10a4 <gotoxy>
     7a4:	e55b303b 	ldrb	r3, [fp, #-59]
     7a8:	e3530000 	cmp	r3, #0	; 0x0
     7ac:	1a000004 	bne	7c4 <testCGetS+0xd4>
     7b0:	e3a0009f 	mov	r0, #159	; 0x9f
     7b4:	eb00022c 	bl	106c <textattr>
     7b8:	e59f0064 	ldr	r0, [pc, #100]	; 824 <.text+0x824>
     7bc:	eb000287 	bl	11e0 <_cputs>
     7c0:	ea000008 	b	7e8 <testCGetS+0xf8>
     7c4:	e3a0001f 	mov	r0, #31	; 0x1f
     7c8:	eb000227 	bl	106c <textattr>
     7cc:	e59f0054 	ldr	r0, [pc, #84]	; 828 <.text+0x828>
     7d0:	eb000282 	bl	11e0 <_cputs>
     7d4:	e3a0000c 	mov	r0, #12	; 0xc
     7d8:	e3a01011 	mov	r1, #17	; 0x11
     7dc:	eb000230 	bl	10a4 <gotoxy>
     7e0:	e51b0014 	ldr	r0, [fp, #-20]
     7e4:	eb00027d 	bl	11e0 <_cputs>
     7e8:	eb0001b8 	bl	ed0 <cursoroff>
     7ec:	e3a00017 	mov	r0, #23	; 0x17
     7f0:	e3a01013 	mov	r1, #19	; 0x13
     7f4:	eb00022a 	bl	10a4 <gotoxy>
     7f8:	e3a0009f 	mov	r0, #159	; 0x9f
     7fc:	eb00021a 	bl	106c <textattr>
     800:	e59f0024 	ldr	r0, [pc, #36]	; 82c <.text+0x82c>
     804:	eb000275 	bl	11e0 <_cputs>
     808:	eb000123 	bl	c9c <_getch>
     80c:	e1a03000 	mov	r3, r0
     810:	e353001b 	cmp	r3, #27	; 0x1b
     814:	1afffffb 	bne	808 <testCGetS+0x118>
     818:	e24bd00c 	sub	sp, fp, #12	; 0xc
     81c:	e89da800 	ldmia	sp, {fp, sp, pc}
     820:	00003038 	andeq	r3, r0, r8, lsr r0
     824:	0000304c 	andeq	r3, r0, ip, asr #32
     828:	00003068 	andeq	r3, r0, r8, rrx
     82c:	00003078 	andeq	r3, r0, r8, ror r0

00000830 <main>:
     830:	e1a0c00d 	mov	ip, sp
     834:	e92dd800 	stmdb	sp!, {fp, ip, lr, pc}
     838:	e24cb004 	sub	fp, ip, #4	; 0x4
     83c:	e24dd00c 	sub	sp, sp, #12	; 0xc
     840:	eb000130 	bl	d08 <MCU_Init>
     844:	e3a03000 	mov	r3, #0	; 0x0
     848:	e50b3010 	str	r3, [fp, #-16]
     84c:	eaffffff 	b	850 <main+0x20>
     850:	e3a00004 	mov	r0, #4	; 0x4
     854:	eb0001df 	bl	fd8 <textbackground>
     858:	eb000178 	bl	e40 <clrscr>
     85c:	e3a00000 	mov	r0, #0	; 0x0
     860:	eb0001a8 	bl	f08 <textcolor>
     864:	e3a00006 	mov	r0, #6	; 0x6
     868:	eb0001da 	bl	fd8 <textbackground>
     86c:	e59f0164 	ldr	r0, [pc, #356]	; 9d8 <.text+0x9d8>
     870:	eb00025a 	bl	11e0 <_cputs>
     874:	eb00017d 	bl	e70 <clreol>
     878:	e3a00004 	mov	r0, #4	; 0x4
     87c:	eb0001d5 	bl	fd8 <textbackground>
     880:	e3a00002 	mov	r0, #2	; 0x2
     884:	eb00019f 	bl	f08 <textcolor>
     888:	e3a03000 	mov	r3, #0	; 0x0
     88c:	e50b3018 	str	r3, [fp, #-24]
     890:	ea00002b 	b	944 <main+0x114>
     894:	e51b3018 	ldr	r3, [fp, #-24]
     898:	e20330ff 	and	r3, r3, #255	; 0xff
     89c:	e283300c 	add	r3, r3, #12	; 0xc
     8a0:	e20330ff 	and	r3, r3, #255	; 0xff
     8a4:	e3a0002e 	mov	r0, #46	; 0x2e
     8a8:	e1a01003 	mov	r1, r3
     8ac:	eb0001fc 	bl	10a4 <gotoxy>
     8b0:	e3a03000 	mov	r3, #0	; 0x0
     8b4:	e50b3014 	str	r3, [fp, #-20]
     8b8:	ea00001b 	b	92c <main+0xfc>
     8bc:	e51b3018 	ldr	r3, [fp, #-24]
     8c0:	e1a02283 	mov	r2, r3, lsl #5
     8c4:	e51b3014 	ldr	r3, [fp, #-20]
     8c8:	e0823003 	add	r3, r2, r3
     8cc:	e1a02003 	mov	r2, r3
     8d0:	e59f3104 	ldr	r3, [pc, #260]	; 9dc <.text+0x9dc>
     8d4:	e5933000 	ldr	r3, [r3]
     8d8:	e0823003 	add	r3, r2, r3
     8dc:	e5d33000 	ldrb	r3, [r3]
     8e0:	e3530023 	cmp	r3, #35	; 0x23
     8e4:	1a000002 	bne	8f4 <main+0xc4>
     8e8:	e3a000db 	mov	r0, #219	; 0xdb
     8ec:	eb0000c9 	bl	c18 <_putch>
     8f0:	ea00000a 	b	920 <main+0xf0>
     8f4:	e51b3018 	ldr	r3, [fp, #-24]
     8f8:	e1a02283 	mov	r2, r3, lsl #5
     8fc:	e51b3014 	ldr	r3, [fp, #-20]
     900:	e0823003 	add	r3, r2, r3
     904:	e1a02003 	mov	r2, r3
     908:	e59f30cc 	ldr	r3, [pc, #204]	; 9dc <.text+0x9dc>
     90c:	e5933000 	ldr	r3, [r3]
     910:	e0823003 	add	r3, r2, r3
     914:	e5d33000 	ldrb	r3, [r3]
     918:	e1a00003 	mov	r0, r3
     91c:	eb0000bd 	bl	c18 <_putch>
     920:	e51b3014 	ldr	r3, [fp, #-20]
     924:	e2833001 	add	r3, r3, #1	; 0x1
     928:	e50b3014 	str	r3, [fp, #-20]
     92c:	e51b3014 	ldr	r3, [fp, #-20]
     930:	e353001f 	cmp	r3, #31	; 0x1f
     934:	daffffe0 	ble	8bc <main+0x8c>
     938:	e51b3018 	ldr	r3, [fp, #-24]
     93c:	e2833001 	add	r3, r3, #1	; 0x1
     940:	e50b3018 	str	r3, [fp, #-24]
     944:	e51b3018 	ldr	r3, [fp, #-24]
     948:	e353000c 	cmp	r3, #12	; 0xc
     94c:	daffffd0 	ble	894 <main+0x64>
     950:	e3a00005 	mov	r0, #5	; 0x5
     954:	e3a01005 	mov	r1, #5	; 0x5
     958:	e59f2080 	ldr	r2, [pc, #128]	; 9e0 <.text+0x9e0>
     95c:	e51b3010 	ldr	r3, [fp, #-16]
     960:	eb00028c 	bl	1398 <runmenu>
     964:	e1a03000 	mov	r3, r0
     968:	e50b3010 	str	r3, [fp, #-16]
     96c:	e51b3010 	ldr	r3, [fp, #-16]
     970:	e2433001 	sub	r3, r3, #1	; 0x1
     974:	e3530006 	cmp	r3, #6	; 0x6
     978:	979ff103 	ldrls	pc, [pc, r3, lsl #2]
     97c:	eaffffb3 	b	850 <main+0x20>
     980:	0000099c 	muleq	r0, ip, r9
     984:	000009a8 	andeq	r0, r0, r8, lsr #19
     988:	000009b0 	streqh	r0, [r0], -r0
     98c:	000009b8 	streqh	r0, [r0], -r8
     990:	000009c0 	andeq	r0, r0, r0, asr #19
     994:	000009c8 	andeq	r0, r0, r8, asr #19
     998:	000009d0 	ldreqd	r0, [r0], -r0
     99c:	e3a00000 	mov	r0, #0	; 0x0
     9a0:	ebfffe3e 	bl	2a0 <memviewer>
     9a4:	eaffffa9 	b	850 <main+0x20>
     9a8:	ebfffe91 	bl	3f4 <debugdemo>
     9ac:	eaffffa7 	b	850 <main+0x20>
     9b0:	ebfffee3 	bl	544 <speedtest>
     9b4:	eaffffa5 	b	850 <main+0x20>
     9b8:	ebffff2a 	bl	668 <submenutest>
     9bc:	eaffffa3 	b	850 <main+0x20>
     9c0:	ebfffeac 	bl	478 <cli>
     9c4:	eaffffa1 	b	850 <main+0x20>
     9c8:	ebffff39 	bl	6b4 <ascii_art>
     9cc:	eaffff9f 	b	850 <main+0x20>
     9d0:	ebffff46 	bl	6f0 <testCGetS>
     9d4:	eaffff9d 	b	850 <main+0x20>
     9d8:	00003230 	andeq	r3, r0, r0, lsr r2
     9dc:	000033a0 	andeq	r3, r0, r0, lsr #7
     9e0:	0000336c 	andeq	r3, r0, ip, ror #6

000009e4 <defaultSpuriousHandler>:
     9e4:	e1a0c00d 	mov	ip, sp
     9e8:	e92dd800 	stmdb	sp!, {fp, ip, lr, pc}
     9ec:	e24cb004 	sub	fp, ip, #4	; 0x4
     9f0:	eafffffe 	b	9f0 <defaultSpuriousHandler+0xc>

000009f4 <defaultFiqHandler>:
     9f4:	e1a0c00d 	mov	ip, sp
     9f8:	e92dd800 	stmdb	sp!, {fp, ip, lr, pc}
     9fc:	e24cb004 	sub	fp, ip, #4	; 0x4
     a00:	eafffffe 	b	a00 <defaultFiqHandler+0xc>

00000a04 <defaultIrqHandler>:
     a04:	e1a0c00d 	mov	ip, sp
     a08:	e92dd800 	stmdb	sp!, {fp, ip, lr, pc}
     a0c:	e24cb004 	sub	fp, ip, #4	; 0x4
     a10:	eafffffe 	b	a10 <defaultIrqHandler+0xc>

00000a14 <LowLevelInit>:
     a14:	e1a0c00d 	mov	ip, sp
     a18:	e92dd800 	stmdb	sp!, {fp, ip, lr, pc}
     a1c:	e24cb004 	sub	fp, ip, #4	; 0x4
     a20:	e24dd004 	sub	sp, sp, #4	; 0x4
     a24:	e3e020ff 	mvn	r2, #255	; 0xff
     a28:	e3a03c01 	mov	r3, #256	; 0x100
     a2c:	e5823060 	str	r3, [r2, #96]
     a30:	e3a02102 	mov	r2, #-2147483648	; 0x80000000
     a34:	e1a02ac2 	mov	r2, r2, asr #21
     a38:	e3a03901 	mov	r3, #16384	; 0x4000
     a3c:	e2833001 	add	r3, r3, #1	; 0x1
     a40:	e5823020 	str	r3, [r2, #32]
     a44:	e3a03102 	mov	r3, #-2147483648	; 0x80000000
     a48:	e1a03ac3 	mov	r3, r3, asr #21
     a4c:	e5933068 	ldr	r3, [r3, #104]
     a50:	e2033001 	and	r3, r3, #1	; 0x1
     a54:	e3530000 	cmp	r3, #0	; 0x0
     a58:	0afffff9 	beq	a44 <LowLevelInit+0x30>
     a5c:	e3a02102 	mov	r2, #-2147483648	; 0x80000000
     a60:	e1a02ac2 	mov	r2, r2, asr #21
     a64:	e3a03541 	mov	r3, #272629760	; 0x10400000
     a68:	e2833a81 	add	r3, r3, #528384	; 0x81000
     a6c:	e283300e 	add	r3, r3, #14	; 0xe
     a70:	e582302c 	str	r3, [r2, #44]
     a74:	e3a03102 	mov	r3, #-2147483648	; 0x80000000
     a78:	e1a03ac3 	mov	r3, r3, asr #21
     a7c:	e5933068 	ldr	r3, [r3, #104]
     a80:	e2033004 	and	r3, r3, #4	; 0x4
     a84:	e3530000 	cmp	r3, #0	; 0x0
     a88:	0afffff9 	beq	a74 <LowLevelInit+0x60>
     a8c:	e3a03102 	mov	r3, #-2147483648	; 0x80000000
     a90:	e1a03ac3 	mov	r3, r3, asr #21
     a94:	e5933068 	ldr	r3, [r3, #104]
     a98:	e2033008 	and	r3, r3, #8	; 0x8
     a9c:	e3530000 	cmp	r3, #0	; 0x0
     aa0:	0afffff9 	beq	a8c <LowLevelInit+0x78>
     aa4:	e3a03102 	mov	r3, #-2147483648	; 0x80000000
     aa8:	e1a03ac3 	mov	r3, r3, asr #21
     aac:	e3a02004 	mov	r2, #4	; 0x4
     ab0:	e5832030 	str	r2, [r3, #48]
     ab4:	e3a03102 	mov	r3, #-2147483648	; 0x80000000
     ab8:	e1a03ac3 	mov	r3, r3, asr #21
     abc:	e5933068 	ldr	r3, [r3, #104]
     ac0:	e2033008 	and	r3, r3, #8	; 0x8
     ac4:	e3530000 	cmp	r3, #0	; 0x0
     ac8:	0afffff9 	beq	ab4 <LowLevelInit+0xa0>
     acc:	e3a02102 	mov	r2, #-2147483648	; 0x80000000
     ad0:	e1a02ac2 	mov	r2, r2, asr #21
     ad4:	e3a03102 	mov	r3, #-2147483648	; 0x80000000
     ad8:	e1a03ac3 	mov	r3, r3, asr #21
     adc:	e5933030 	ldr	r3, [r3, #48]
     ae0:	e3833003 	orr	r3, r3, #3	; 0x3
     ae4:	e5823030 	str	r3, [r2, #48]
     ae8:	e3a03102 	mov	r3, #-2147483648	; 0x80000000
     aec:	e1a03ac3 	mov	r3, r3, asr #21
     af0:	e5933068 	ldr	r3, [r3, #104]
     af4:	e2033008 	and	r3, r3, #8	; 0x8
     af8:	e3530000 	cmp	r3, #0	; 0x0
     afc:	0afffff9 	beq	ae8 <LowLevelInit+0xd4>
     b00:	e3a03102 	mov	r3, #-2147483648	; 0x80000000
     b04:	e1a039c3 	mov	r3, r3, asr #19
     b08:	e3e02000 	mvn	r2, #0	; 0x0
     b0c:	e5832124 	str	r2, [r3, #292]
     b10:	e3a03102 	mov	r3, #-2147483648	; 0x80000000
     b14:	e1a039c3 	mov	r3, r3, asr #19
     b18:	e59f20ec 	ldr	r2, [pc, #236]	; c0c <.text+0xc0c>
     b1c:	e5832080 	str	r2, [r3, #128]
     b20:	e3a03001 	mov	r3, #1	; 0x1
     b24:	e54b300d 	strb	r3, [fp, #-13]
     b28:	ea00000c 	b	b60 <LowLevelInit+0x14c>
     b2c:	e3a02102 	mov	r2, #-2147483648	; 0x80000000
     b30:	e1a029c2 	mov	r2, r2, asr #19
     b34:	e55b000d 	ldrb	r0, [fp, #-13]
     b38:	e59f30d0 	ldr	r3, [pc, #208]	; c10 <.text+0xc10>
     b3c:	e1a0c003 	mov	ip, r3
     b40:	e3a01080 	mov	r1, #128	; 0x80
     b44:	e1a03100 	mov	r3, r0, lsl #2
     b48:	e0833002 	add	r3, r3, r2
     b4c:	e0833001 	add	r3, r3, r1
     b50:	e583c000 	str	ip, [r3]
     b54:	e55b300d 	ldrb	r3, [fp, #-13]
     b58:	e2833001 	add	r3, r3, #1	; 0x1
     b5c:	e54b300d 	strb	r3, [fp, #-13]
     b60:	e55b300d 	ldrb	r3, [fp, #-13]
     b64:	e353001e 	cmp	r3, #30	; 0x1e
     b68:	9affffef 	bls	b2c <LowLevelInit+0x118>
     b6c:	e3a03102 	mov	r3, #-2147483648	; 0x80000000
     b70:	e1a039c3 	mov	r3, r3, asr #19
     b74:	e59f2098 	ldr	r2, [pc, #152]	; c14 <.text+0xc14>
     b78:	e5832134 	str	r2, [r3, #308]
     b7c:	e3a03000 	mov	r3, #0	; 0x0
     b80:	e54b300d 	strb	r3, [fp, #-13]
     b84:	ea000006 	b	ba4 <LowLevelInit+0x190>
     b88:	e3a03102 	mov	r3, #-2147483648	; 0x80000000
     b8c:	e1a039c3 	mov	r3, r3, asr #19
     b90:	e3a02000 	mov	r2, #0	; 0x0
     b94:	e5832130 	str	r2, [r3, #304]
     b98:	e55b300d 	ldrb	r3, [fp, #-13]
     b9c:	e2833001 	add	r3, r3, #1	; 0x1
     ba0:	e54b300d 	strb	r3, [fp, #-13]
     ba4:	e55b300d 	ldrb	r3, [fp, #-13]
     ba8:	e3530007 	cmp	r3, #7	; 0x7
     bac:	9afffff5 	bls	b88 <LowLevelInit+0x174>
     bb0:	e3a03102 	mov	r3, #-2147483648	; 0x80000000
     bb4:	e1a039c3 	mov	r3, r3, asr #19
     bb8:	e3a02001 	mov	r2, #1	; 0x1
     bbc:	e5832138 	str	r2, [r3, #312]
     bc0:	e3a0332a 	mov	r3, #-1476395008	; 0xa8000000
     bc4:	e1a03ac3 	mov	r3, r3, asr #21
     bc8:	e3a02902 	mov	r2, #32768	; 0x8000
     bcc:	e5832004 	str	r2, [r3, #4]
     bd0:	e3a02329 	mov	r2, #-1543503872	; 0xa4000000
     bd4:	e1a02ac2 	mov	r2, r2, asr #21
     bd8:	e3a03329 	mov	r3, #-1543503872	; 0xa4000000
     bdc:	e1a03ac3 	mov	r3, r3, asr #21
     be0:	e5933000 	ldr	r3, [r3]
     be4:	e3c33803 	bic	r3, r3, #196608	; 0x30000
     be8:	e5823000 	str	r3, [r2]
     bec:	e3a024a6 	mov	r2, #-1509949440	; 0xa6000000
     bf0:	e1a02ac2 	mov	r2, r2, asr #21
     bf4:	e3a034a6 	mov	r3, #-1509949440	; 0xa6000000
     bf8:	e1a03ac3 	mov	r3, r3, asr #21
     bfc:	e5933000 	ldr	r3, [r3]
     c00:	e3c33402 	bic	r3, r3, #33554432	; 0x2000000
     c04:	e5823000 	str	r3, [r2]
     c08:	e89da808 	ldmia	sp, {r3, fp, sp, pc}
     c0c:	000009f4 	streqd	r0, [r0], -r4
     c10:	00000a04 	andeq	r0, r0, r4, lsl #20
     c14:	000009e4 	andeq	r0, r0, r4, ror #19

00000c18 <_putch>:
     c18:	e1a0c00d 	mov	ip, sp
     c1c:	e92dd800 	stmdb	sp!, {fp, ip, lr, pc}
     c20:	e24cb004 	sub	fp, ip, #4	; 0x4
     c24:	e24dd004 	sub	sp, sp, #4	; 0x4
     c28:	e1a03000 	mov	r3, r0
     c2c:	e54b3010 	strb	r3, [fp, #-16]
     c30:	e3a0320a 	mov	r3, #-1610612736	; 0xa0000000
     c34:	e1a039c3 	mov	r3, r3, asr #19
     c38:	e593303c 	ldr	r3, [r3, #60]
     c3c:	e2033001 	and	r3, r3, #1	; 0x1
     c40:	e20330ff 	and	r3, r3, #255	; 0xff
     c44:	e3530000 	cmp	r3, #0	; 0x0
     c48:	1afffff8 	bne	c30 <_putch+0x18>
     c4c:	e3a03209 	mov	r3, #-1879048192	; 0x90000000
     c50:	e1a039c3 	mov	r3, r3, asr #19
     c54:	e55b2010 	ldrb	r2, [fp, #-16]
     c58:	e583201c 	str	r2, [r3, #28]
     c5c:	e3a03209 	mov	r3, #-1879048192	; 0x90000000
     c60:	e1a039c3 	mov	r3, r3, asr #19
     c64:	e5933014 	ldr	r3, [r3, #20]
     c68:	e2033002 	and	r3, r3, #2	; 0x2
     c6c:	e3530000 	cmp	r3, #0	; 0x0
     c70:	0afffff9 	beq	c5c <_putch+0x44>
     c74:	e89da808 	ldmia	sp, {r3, fp, sp, pc}

00000c78 <_kbhit>:
     c78:	e1a0c00d 	mov	ip, sp
     c7c:	e92dd800 	stmdb	sp!, {fp, ip, lr, pc}
     c80:	e24cb004 	sub	fp, ip, #4	; 0x4
     c84:	e3a03209 	mov	r3, #-1879048192	; 0x90000000
     c88:	e1a039c3 	mov	r3, r3, asr #19
     c8c:	e5933014 	ldr	r3, [r3, #20]
     c90:	e2033001 	and	r3, r3, #1	; 0x1
     c94:	e1a00003 	mov	r0, r3
     c98:	e89da800 	ldmia	sp, {fp, sp, pc}

00000c9c <_getch>:
     c9c:	e1a0c00d 	mov	ip, sp
     ca0:	e92dd800 	stmdb	sp!, {fp, ip, lr, pc}
     ca4:	e24cb004 	sub	fp, ip, #4	; 0x4
     ca8:	e24dd004 	sub	sp, sp, #4	; 0x4
     cac:	ebfffff1 	bl	c78 <_kbhit>
     cb0:	e1a03000 	mov	r3, r0
     cb4:	e3530000 	cmp	r3, #0	; 0x0
     cb8:	0afffffb 	beq	cac <_getch+0x10>
     cbc:	e3a03209 	mov	r3, #-1879048192	; 0x90000000
     cc0:	e1a039c3 	mov	r3, r3, asr #19
     cc4:	e5933018 	ldr	r3, [r3, #24]
     cc8:	e50b3010 	str	r3, [fp, #-16]
     ccc:	e51b3010 	ldr	r3, [fp, #-16]
     cd0:	e3530000 	cmp	r3, #0	; 0x0
     cd4:	1a000008 	bne	cfc <_getch+0x60>
     cd8:	ebffffe6 	bl	c78 <_kbhit>
     cdc:	e1a03000 	mov	r3, r0
     ce0:	e3530000 	cmp	r3, #0	; 0x0
     ce4:	0afffffb 	beq	cd8 <_getch+0x3c>
     ce8:	e3a03209 	mov	r3, #-1879048192	; 0x90000000
     cec:	e1a039c3 	mov	r3, r3, asr #19
     cf0:	e5933018 	ldr	r3, [r3, #24]
     cf4:	e3833c01 	orr	r3, r3, #256	; 0x100
     cf8:	e50b3010 	str	r3, [fp, #-16]
     cfc:	e51b3010 	ldr	r3, [fp, #-16]
     d00:	e1a00003 	mov	r0, r3
     d04:	e89da808 	ldmia	sp, {r3, fp, sp, pc}

00000d08 <MCU_Init>:
     d08:	e1a0c00d 	mov	ip, sp
     d0c:	e92dd800 	stmdb	sp!, {fp, ip, lr, pc}
     d10:	e24cb004 	sub	fp, ip, #4	; 0x4
     d14:	ebffff3e 	bl	a14 <LowLevelInit>
     d18:	e3a03209 	mov	r3, #-1879048192	; 0x90000000
     d1c:	e1a039c3 	mov	r3, r3, asr #19
     d20:	e3a0200c 	mov	r2, #12	; 0xc
     d24:	e5832000 	str	r2, [r3]
     d28:	e3a03209 	mov	r3, #-1879048192	; 0x90000000
     d2c:	e1a039c3 	mov	r3, r3, asr #19
     d30:	e3e02000 	mvn	r2, #0	; 0x0
     d34:	e583200c 	str	r2, [r3, #12]
     d38:	e3a0320a 	mov	r3, #-1610612736	; 0xa0000000
     d3c:	e1a039c3 	mov	r3, r3, asr #19
     d40:	e3a02c06 	mov	r2, #1536	; 0x600
     d44:	e5832070 	str	r2, [r3, #112]
     d48:	e3a0320a 	mov	r3, #-1610612736	; 0xa0000000
     d4c:	e1a039c3 	mov	r3, r3, asr #19
     d50:	e3a02000 	mov	r2, #0	; 0x0
     d54:	e5832074 	str	r2, [r3, #116]
     d58:	e3a0320a 	mov	r3, #-1610612736	; 0xa0000000
     d5c:	e1a039c3 	mov	r3, r3, asr #19
     d60:	e3a02c06 	mov	r2, #1536	; 0x600
     d64:	e5832004 	str	r2, [r3, #4]
     d68:	e3a03209 	mov	r3, #-1879048192	; 0x90000000
     d6c:	e1a039c3 	mov	r3, r3, asr #19
     d70:	e3a02003 	mov	r2, #3	; 0x3
     d74:	e5832020 	str	r2, [r3, #32]
     d78:	e3a03209 	mov	r3, #-1879048192	; 0x90000000
     d7c:	e1a039c3 	mov	r3, r3, asr #19
     d80:	e3a02b02 	mov	r2, #2048	; 0x800
     d84:	e5832004 	str	r2, [r3, #4]
     d88:	e3a02209 	mov	r2, #-1879048192	; 0x90000000
     d8c:	e1a029c2 	mov	r2, r2, asr #19
     d90:	e3a03c02 	mov	r3, #512	; 0x200
     d94:	e2833002 	add	r3, r3, #2	; 0x2
     d98:	e5823120 	str	r3, [r2, #288]
     d9c:	e3a03209 	mov	r3, #-1879048192	; 0x90000000
     da0:	e1a039c3 	mov	r3, r3, asr #19
     da4:	e3a02050 	mov	r2, #80	; 0x50
     da8:	e5832000 	str	r2, [r3]
     dac:	e3a03102 	mov	r3, #-2147483648	; 0x80000000
     db0:	e1a03ac3 	mov	r3, r3, asr #21
     db4:	e3a02004 	mov	r2, #4	; 0x4
     db8:	e5832010 	str	r2, [r3, #16]
     dbc:	e3a0320a 	mov	r3, #-1610612736	; 0xa0000000
     dc0:	e1a039c3 	mov	r3, r3, asr #19
     dc4:	e3a02902 	mov	r2, #32768	; 0x8000
     dc8:	e5832000 	str	r2, [r3]
     dcc:	e3a0320a 	mov	r3, #-1610612736	; 0xa0000000
     dd0:	e1a039c3 	mov	r3, r3, asr #19
     dd4:	e3a02902 	mov	r2, #32768	; 0x8000
     dd8:	e5832010 	str	r2, [r3, #16]
     ddc:	e3a0320a 	mov	r3, #-1610612736	; 0xa0000000
     de0:	e1a039c3 	mov	r3, r3, asr #19
     de4:	e3a02902 	mov	r2, #32768	; 0x8000
     de8:	e5832034 	str	r2, [r3, #52]
     dec:	e3a0320a 	mov	r3, #-1610612736	; 0xa0000000
     df0:	e1a039c3 	mov	r3, r3, asr #19
     df4:	e3a02002 	mov	r2, #2	; 0x2
     df8:	e5832000 	str	r2, [r3]
     dfc:	e3a0320a 	mov	r3, #-1610612736	; 0xa0000000
     e00:	e1a039c3 	mov	r3, r3, asr #19
     e04:	e3a02002 	mov	r2, #2	; 0x2
     e08:	e5832010 	str	r2, [r3, #16]
     e0c:	e3a0320a 	mov	r3, #-1610612736	; 0xa0000000
     e10:	e1a039c3 	mov	r3, r3, asr #19
     e14:	e3a02002 	mov	r2, #2	; 0x2
     e18:	e5832034 	str	r2, [r3, #52]
     e1c:	e3a0320a 	mov	r3, #-1610612736	; 0xa0000000
     e20:	e1a039c3 	mov	r3, r3, asr #19
     e24:	e3a02001 	mov	r2, #1	; 0x1
     e28:	e5832000 	str	r2, [r3]
     e2c:	e3a0320a 	mov	r3, #-1610612736	; 0xa0000000
     e30:	e1a039c3 	mov	r3, r3, asr #19
     e34:	e3a02001 	mov	r2, #1	; 0x1
     e38:	e5832014 	str	r2, [r3, #20]
     e3c:	e89da800 	ldmia	sp, {fp, sp, pc}

00000e40 <clrscr>:
     e40:	e1a0c00d 	mov	ip, sp
     e44:	e92dd800 	stmdb	sp!, {fp, ip, lr, pc}
     e48:	e24cb004 	sub	fp, ip, #4	; 0x4
     e4c:	e3a0001b 	mov	r0, #27	; 0x1b
     e50:	ebffff70 	bl	c18 <_putch>
     e54:	e3a0005b 	mov	r0, #91	; 0x5b
     e58:	ebffff6e 	bl	c18 <_putch>
     e5c:	e3a00032 	mov	r0, #50	; 0x32
     e60:	ebffff6c 	bl	c18 <_putch>
     e64:	e3a0004a 	mov	r0, #74	; 0x4a
     e68:	ebffff6a 	bl	c18 <_putch>
     e6c:	e89da800 	ldmia	sp, {fp, sp, pc}

00000e70 <clreol>:
     e70:	e1a0c00d 	mov	ip, sp
     e74:	e92dd800 	stmdb	sp!, {fp, ip, lr, pc}
     e78:	e24cb004 	sub	fp, ip, #4	; 0x4
     e7c:	e3a0001b 	mov	r0, #27	; 0x1b
     e80:	ebffff64 	bl	c18 <_putch>
     e84:	e3a0005b 	mov	r0, #91	; 0x5b
     e88:	ebffff62 	bl	c18 <_putch>
     e8c:	e3a0004b 	mov	r0, #75	; 0x4b
     e90:	ebffff60 	bl	c18 <_putch>
     e94:	e89da800 	ldmia	sp, {fp, sp, pc}

00000e98 <cursoron>:
     e98:	e1a0c00d 	mov	ip, sp
     e9c:	e92dd800 	stmdb	sp!, {fp, ip, lr, pc}
     ea0:	e24cb004 	sub	fp, ip, #4	; 0x4
     ea4:	e3a0001b 	mov	r0, #27	; 0x1b
     ea8:	ebffff5a 	bl	c18 <_putch>
     eac:	e3a0005b 	mov	r0, #91	; 0x5b
     eb0:	ebffff58 	bl	c18 <_putch>
     eb4:	e3a00032 	mov	r0, #50	; 0x32
     eb8:	ebffff56 	bl	c18 <_putch>
     ebc:	e3a00035 	mov	r0, #53	; 0x35
     ec0:	ebffff54 	bl	c18 <_putch>
     ec4:	e3a00068 	mov	r0, #104	; 0x68
     ec8:	ebffff52 	bl	c18 <_putch>
     ecc:	e89da800 	ldmia	sp, {fp, sp, pc}

00000ed0 <cursoroff>:
     ed0:	e1a0c00d 	mov	ip, sp
     ed4:	e92dd800 	stmdb	sp!, {fp, ip, lr, pc}
     ed8:	e24cb004 	sub	fp, ip, #4	; 0x4
     edc:	e3a0001b 	mov	r0, #27	; 0x1b
     ee0:	ebffff4c 	bl	c18 <_putch>
     ee4:	e3a0005b 	mov	r0, #91	; 0x5b
     ee8:	ebffff4a 	bl	c18 <_putch>
     eec:	e3a00032 	mov	r0, #50	; 0x32
     ef0:	ebffff48 	bl	c18 <_putch>
     ef4:	e3a00035 	mov	r0, #53	; 0x35
     ef8:	ebffff46 	bl	c18 <_putch>
     efc:	e3a0006c 	mov	r0, #108	; 0x6c
     f00:	ebffff44 	bl	c18 <_putch>
     f04:	e89da800 	ldmia	sp, {fp, sp, pc}

00000f08 <textcolor>:
     f08:	e1a0c00d 	mov	ip, sp
     f0c:	e92dd800 	stmdb	sp!, {fp, ip, lr, pc}
     f10:	e24cb004 	sub	fp, ip, #4	; 0x4
     f14:	e24dd008 	sub	sp, sp, #8	; 0x8
     f18:	e50b0010 	str	r0, [fp, #-16]
     f1c:	e3a0001b 	mov	r0, #27	; 0x1b
     f20:	ebffff3c 	bl	c18 <_putch>
     f24:	e3a0005b 	mov	r0, #91	; 0x5b
     f28:	ebffff3a 	bl	c18 <_putch>
     f2c:	e51b3010 	ldr	r3, [fp, #-16]
     f30:	e2033008 	and	r3, r3, #8	; 0x8
     f34:	e3530000 	cmp	r3, #0	; 0x0
     f38:	0a000002 	beq	f48 <textcolor+0x40>
     f3c:	e3a00031 	mov	r0, #49	; 0x31
     f40:	ebffff34 	bl	c18 <_putch>
     f44:	ea000001 	b	f50 <textcolor+0x48>
     f48:	e3a00032 	mov	r0, #50	; 0x32
     f4c:	ebffff31 	bl	c18 <_putch>
     f50:	e3a0006d 	mov	r0, #109	; 0x6d
     f54:	ebffff2f 	bl	c18 <_putch>
     f58:	e3a0001b 	mov	r0, #27	; 0x1b
     f5c:	ebffff2d 	bl	c18 <_putch>
     f60:	e3a0005b 	mov	r0, #91	; 0x5b
     f64:	ebffff2b 	bl	c18 <_putch>
     f68:	e3a00033 	mov	r0, #51	; 0x33
     f6c:	ebffff29 	bl	c18 <_putch>
     f70:	e51b3010 	ldr	r3, [fp, #-16]
     f74:	e2031007 	and	r1, r3, #7	; 0x7
     f78:	e59f3054 	ldr	r3, [pc, #84]	; fd4 <.text+0xfd4>
     f7c:	e0c32391 	smull	r2, r3, r1, r3
     f80:	e1a02143 	mov	r2, r3, asr #2
     f84:	e1a03fc1 	mov	r3, r1, asr #31
     f88:	e0632002 	rsb	r2, r3, r2
     f8c:	e50b2014 	str	r2, [fp, #-20]
     f90:	e51b3014 	ldr	r3, [fp, #-20]
     f94:	e1a03103 	mov	r3, r3, lsl #2
     f98:	e51b2014 	ldr	r2, [fp, #-20]
     f9c:	e0833002 	add	r3, r3, r2
     fa0:	e1a03083 	mov	r3, r3, lsl #1
     fa4:	e0631001 	rsb	r1, r3, r1
     fa8:	e50b1014 	str	r1, [fp, #-20]
     fac:	e51b2014 	ldr	r2, [fp, #-20]
     fb0:	e20230ff 	and	r3, r2, #255	; 0xff
     fb4:	e2833030 	add	r3, r3, #48	; 0x30
     fb8:	e20330ff 	and	r3, r3, #255	; 0xff
     fbc:	e1a00003 	mov	r0, r3
     fc0:	ebffff14 	bl	c18 <_putch>
     fc4:	e3a0006d 	mov	r0, #109	; 0x6d
     fc8:	ebffff12 	bl	c18 <_putch>
     fcc:	e24bd00c 	sub	sp, fp, #12	; 0xc
     fd0:	e89da800 	ldmia	sp, {fp, sp, pc}
     fd4:	66666667 	strvsbt	r6, [r6], -r7, ror #12

00000fd8 <textbackground>:
     fd8:	e1a0c00d 	mov	ip, sp
     fdc:	e92dd800 	stmdb	sp!, {fp, ip, lr, pc}
     fe0:	e24cb004 	sub	fp, ip, #4	; 0x4
     fe4:	e24dd004 	sub	sp, sp, #4	; 0x4
     fe8:	e50b0010 	str	r0, [fp, #-16]
     fec:	e3a0001b 	mov	r0, #27	; 0x1b
     ff0:	ebffff08 	bl	c18 <_putch>
     ff4:	e3a0005b 	mov	r0, #91	; 0x5b
     ff8:	ebffff06 	bl	c18 <_putch>
     ffc:	e51b3010 	ldr	r3, [fp, #-16]
    1000:	e2033008 	and	r3, r3, #8	; 0x8
    1004:	e3530000 	cmp	r3, #0	; 0x0
    1008:	0a000002 	beq	1018 <textbackground+0x40>
    100c:	e3a00035 	mov	r0, #53	; 0x35
    1010:	ebffff00 	bl	c18 <_putch>
    1014:	ea000001 	b	1020 <textbackground+0x48>
    1018:	e3a00036 	mov	r0, #54	; 0x36
    101c:	ebfffefd 	bl	c18 <_putch>
    1020:	e3a0006d 	mov	r0, #109	; 0x6d
    1024:	ebfffefb 	bl	c18 <_putch>
    1028:	e3a0001b 	mov	r0, #27	; 0x1b
    102c:	ebfffef9 	bl	c18 <_putch>
    1030:	e3a0005b 	mov	r0, #91	; 0x5b
    1034:	ebfffef7 	bl	c18 <_putch>
    1038:	e3a00034 	mov	r0, #52	; 0x34
    103c:	ebfffef5 	bl	c18 <_putch>
    1040:	e51b3010 	ldr	r3, [fp, #-16]
    1044:	e20330ff 	and	r3, r3, #255	; 0xff
    1048:	e20330ff 	and	r3, r3, #255	; 0xff
    104c:	e2033007 	and	r3, r3, #7	; 0x7
    1050:	e2833030 	add	r3, r3, #48	; 0x30
    1054:	e20330ff 	and	r3, r3, #255	; 0xff
    1058:	e1a00003 	mov	r0, r3
    105c:	ebfffeed 	bl	c18 <_putch>
    1060:	e3a0006d 	mov	r0, #109	; 0x6d
    1064:	ebfffeeb 	bl	c18 <_putch>
    1068:	e89da808 	ldmia	sp, {r3, fp, sp, pc}

0000106c <textattr>:
    106c:	e1a0c00d 	mov	ip, sp
    1070:	e92dd800 	stmdb	sp!, {fp, ip, lr, pc}
    1074:	e24cb004 	sub	fp, ip, #4	; 0x4
    1078:	e24dd004 	sub	sp, sp, #4	; 0x4
    107c:	e50b0010 	str	r0, [fp, #-16]
    1080:	e51b3010 	ldr	r3, [fp, #-16]
    1084:	e203300f 	and	r3, r3, #15	; 0xf
    1088:	e1a00003 	mov	r0, r3
    108c:	ebffff9d 	bl	f08 <textcolor>
    1090:	e51b3010 	ldr	r3, [fp, #-16]
    1094:	e1a03243 	mov	r3, r3, asr #4
    1098:	e1a00003 	mov	r0, r3
    109c:	ebffffcd 	bl	fd8 <textbackground>
    10a0:	e89da808 	ldmia	sp, {r3, fp, sp, pc}

000010a4 <gotoxy>:
    10a4:	e1a0c00d 	mov	ip, sp
    10a8:	e92dd800 	stmdb	sp!, {fp, ip, lr, pc}
    10ac:	e24cb004 	sub	fp, ip, #4	; 0x4
    10b0:	e24dd008 	sub	sp, sp, #8	; 0x8
    10b4:	e1a03000 	mov	r3, r0
    10b8:	e1a02001 	mov	r2, r1
    10bc:	e54b3010 	strb	r3, [fp, #-16]
    10c0:	e1a03002 	mov	r3, r2
    10c4:	e54b3014 	strb	r3, [fp, #-20]
    10c8:	e55b3010 	ldrb	r3, [fp, #-16]
    10cc:	e3530050 	cmp	r3, #80	; 0x50
    10d0:	8a00003f 	bhi	11d4 <gotoxy+0x130>
    10d4:	e55b3014 	ldrb	r3, [fp, #-20]
    10d8:	e3530019 	cmp	r3, #25	; 0x19
    10dc:	9a000000 	bls	10e4 <gotoxy+0x40>
    10e0:	ea00003b 	b	11d4 <gotoxy+0x130>
    10e4:	e55b3010 	ldrb	r3, [fp, #-16]
    10e8:	e2433001 	sub	r3, r3, #1	; 0x1
    10ec:	e54b3010 	strb	r3, [fp, #-16]
    10f0:	e55b3014 	ldrb	r3, [fp, #-20]
    10f4:	e2433001 	sub	r3, r3, #1	; 0x1
    10f8:	e54b3014 	strb	r3, [fp, #-20]
    10fc:	e3a0001b 	mov	r0, #27	; 0x1b
    1100:	ebfffec4 	bl	c18 <_putch>
    1104:	e3a0005b 	mov	r0, #91	; 0x5b
    1108:	ebfffec2 	bl	c18 <_putch>
    110c:	e55b2014 	ldrb	r2, [fp, #-20]
    1110:	e59f30c4 	ldr	r3, [pc, #196]	; 11dc <.text+0x11dc>
    1114:	e0831392 	umull	r1, r3, r2, r3
    1118:	e1a031a3 	mov	r3, r3, lsr #3
    111c:	e20330ff 	and	r3, r3, #255	; 0xff
    1120:	e2833030 	add	r3, r3, #48	; 0x30
    1124:	e20330ff 	and	r3, r3, #255	; 0xff
    1128:	e1a00003 	mov	r0, r3
    112c:	ebfffeb9 	bl	c18 <_putch>
    1130:	e55b1014 	ldrb	r1, [fp, #-20]
    1134:	e59f30a0 	ldr	r3, [pc, #160]	; 11dc <.text+0x11dc>
    1138:	e0832391 	umull	r2, r3, r1, r3
    113c:	e1a021a3 	mov	r2, r3, lsr #3
    1140:	e1a03002 	mov	r3, r2
    1144:	e1a03103 	mov	r3, r3, lsl #2
    1148:	e0833002 	add	r3, r3, r2
    114c:	e1a03083 	mov	r3, r3, lsl #1
    1150:	e0633001 	rsb	r3, r3, r1
    1154:	e20330ff 	and	r3, r3, #255	; 0xff
    1158:	e2833030 	add	r3, r3, #48	; 0x30
    115c:	e20330ff 	and	r3, r3, #255	; 0xff
    1160:	e1a00003 	mov	r0, r3
    1164:	ebfffeab 	bl	c18 <_putch>
    1168:	e3a0003b 	mov	r0, #59	; 0x3b
    116c:	ebfffea9 	bl	c18 <_putch>
    1170:	e55b2010 	ldrb	r2, [fp, #-16]
    1174:	e59f3060 	ldr	r3, [pc, #96]	; 11dc <.text+0x11dc>
    1178:	e0831392 	umull	r1, r3, r2, r3
    117c:	e1a031a3 	mov	r3, r3, lsr #3
    1180:	e20330ff 	and	r3, r3, #255	; 0xff
    1184:	e2833030 	add	r3, r3, #48	; 0x30
    1188:	e20330ff 	and	r3, r3, #255	; 0xff
    118c:	e1a00003 	mov	r0, r3
    1190:	ebfffea0 	bl	c18 <_putch>
    1194:	e55b1010 	ldrb	r1, [fp, #-16]
    1198:	e59f303c 	ldr	r3, [pc, #60]	; 11dc <.text+0x11dc>
    119c:	e0832391 	umull	r2, r3, r1, r3
    11a0:	e1a021a3 	mov	r2, r3, lsr #3
    11a4:	e1a03002 	mov	r3, r2
    11a8:	e1a03103 	mov	r3, r3, lsl #2
    11ac:	e0833002 	add	r3, r3, r2
    11b0:	e1a03083 	mov	r3, r3, lsl #1
    11b4:	e0633001 	rsb	r3, r3, r1
    11b8:	e20330ff 	and	r3, r3, #255	; 0xff
    11bc:	e2833030 	add	r3, r3, #48	; 0x30
    11c0:	e20330ff 	and	r3, r3, #255	; 0xff
    11c4:	e1a00003 	mov	r0, r3
    11c8:	ebfffe92 	bl	c18 <_putch>
    11cc:	e3a00066 	mov	r0, #102	; 0x66
    11d0:	ebfffe90 	bl	c18 <_putch>
    11d4:	e24bd00c 	sub	sp, fp, #12	; 0xc
    11d8:	e89da800 	ldmia	sp, {fp, sp, pc}
    11dc:	cccccccd 	stcgtl	12, cr12, [ip], {205}

000011e0 <_cputs>:
    11e0:	e1a0c00d 	mov	ip, sp
    11e4:	e92dd800 	stmdb	sp!, {fp, ip, lr, pc}
    11e8:	e24cb004 	sub	fp, ip, #4	; 0x4
    11ec:	e24dd004 	sub	sp, sp, #4	; 0x4
    11f0:	e50b0010 	str	r0, [fp, #-16]
    11f4:	ea000007 	b	1218 <_cputs+0x38>
    11f8:	e51b3010 	ldr	r3, [fp, #-16]
    11fc:	e5d33000 	ldrb	r3, [r3]
    1200:	e1a02003 	mov	r2, r3
    1204:	e51b3010 	ldr	r3, [fp, #-16]
    1208:	e2833001 	add	r3, r3, #1	; 0x1
    120c:	e50b3010 	str	r3, [fp, #-16]
    1210:	e1a00002 	mov	r0, r2
    1214:	ebfffe7f 	bl	c18 <_putch>
    1218:	e51b3010 	ldr	r3, [fp, #-16]
    121c:	e5d33000 	ldrb	r3, [r3]
    1220:	e3530000 	cmp	r3, #0	; 0x0
    1224:	1afffff3 	bne	11f8 <_cputs+0x18>
    1228:	e89da808 	ldmia	sp, {r3, fp, sp, pc}

0000122c <_cgets>:
    122c:	e1a0c00d 	mov	ip, sp
    1230:	e92dd800 	stmdb	sp!, {fp, ip, lr, pc}
    1234:	e24cb004 	sub	fp, ip, #4	; 0x4
    1238:	e24dd010 	sub	sp, sp, #16	; 0x10
    123c:	e50b0018 	str	r0, [fp, #-24]
    1240:	e3a03000 	mov	r3, #0	; 0x0
    1244:	e54b3011 	strb	r3, [fp, #-17]
    1248:	ea00003b 	b	133c <_cgets+0x110>
    124c:	ebfffe92 	bl	c9c <_getch>
    1250:	e1a03000 	mov	r3, r0
    1254:	e50b3010 	str	r3, [fp, #-16]
    1258:	e51b3010 	ldr	r3, [fp, #-16]
    125c:	e353000a 	cmp	r3, #10	; 0xa
    1260:	0a00003a 	beq	1350 <_cgets+0x124>
    1264:	e51b3010 	ldr	r3, [fp, #-16]
    1268:	e353001b 	cmp	r3, #27	; 0x1b
    126c:	1a00000b 	bne	12a0 <_cgets+0x74>
    1270:	e51b3018 	ldr	r3, [fp, #-24]
    1274:	e2832001 	add	r2, r3, #1	; 0x1
    1278:	e3a03000 	mov	r3, #0	; 0x0
    127c:	e5c23000 	strb	r3, [r2]
    1280:	e51b3018 	ldr	r3, [fp, #-24]
    1284:	e2832002 	add	r2, r3, #2	; 0x2
    1288:	e3a03000 	mov	r3, #0	; 0x0
    128c:	e5c23000 	strb	r3, [r2]
    1290:	e51b3018 	ldr	r3, [fp, #-24]
    1294:	e2833002 	add	r3, r3, #2	; 0x2
    1298:	e50b301c 	str	r3, [fp, #-28]
    129c:	ea000039 	b	1388 <_cgets+0x15c>
    12a0:	e51b3010 	ldr	r3, [fp, #-16]
    12a4:	e3530008 	cmp	r3, #8	; 0x8
    12a8:	1a00000c 	bne	12e0 <_cgets+0xb4>
    12ac:	e55b3011 	ldrb	r3, [fp, #-17]
    12b0:	e3530000 	cmp	r3, #0	; 0x0
    12b4:	0a000020 	beq	133c <_cgets+0x110>
    12b8:	e55b3011 	ldrb	r3, [fp, #-17]
    12bc:	e2433001 	sub	r3, r3, #1	; 0x1
    12c0:	e54b3011 	strb	r3, [fp, #-17]
    12c4:	e3a00008 	mov	r0, #8	; 0x8
    12c8:	ebfffe52 	bl	c18 <_putch>
    12cc:	e3a00020 	mov	r0, #32	; 0x20
    12d0:	ebfffe50 	bl	c18 <_putch>
    12d4:	e3a00008 	mov	r0, #8	; 0x8
    12d8:	ebfffe4e 	bl	c18 <_putch>
    12dc:	ea000016 	b	133c <_cgets+0x110>
    12e0:	e51b3010 	ldr	r3, [fp, #-16]
    12e4:	e3530080 	cmp	r3, #128	; 0x80
    12e8:	ca000013 	bgt	133c <_cgets+0x110>
    12ec:	e51b3010 	ldr	r3, [fp, #-16]
    12f0:	e353001f 	cmp	r3, #31	; 0x1f
    12f4:	da000010 	ble	133c <_cgets+0x110>
    12f8:	e51b3010 	ldr	r3, [fp, #-16]
    12fc:	e20330ff 	and	r3, r3, #255	; 0xff
    1300:	e20330ff 	and	r3, r3, #255	; 0xff
    1304:	e1a00003 	mov	r0, r3
    1308:	ebfffe42 	bl	c18 <_putch>
    130c:	e55b3011 	ldrb	r3, [fp, #-17]
    1310:	e1a02003 	mov	r2, r3
    1314:	e51b3018 	ldr	r3, [fp, #-24]
    1318:	e0823003 	add	r3, r2, r3
    131c:	e2832002 	add	r2, r3, #2	; 0x2
    1320:	e51b3010 	ldr	r3, [fp, #-16]
    1324:	e20330ff 	and	r3, r3, #255	; 0xff
    1328:	e20330ff 	and	r3, r3, #255	; 0xff
    132c:	e5c23000 	strb	r3, [r2]
    1330:	e55b3011 	ldrb	r3, [fp, #-17]
    1334:	e2833001 	add	r3, r3, #1	; 0x1
    1338:	e54b3011 	strb	r3, [fp, #-17]
    133c:	e51b3018 	ldr	r3, [fp, #-24]
    1340:	e5d32000 	ldrb	r2, [r3]
    1344:	e55b3011 	ldrb	r3, [fp, #-17]
    1348:	e1530002 	cmp	r3, r2
    134c:	3affffbe 	bcc	124c <_cgets+0x20>
    1350:	e51b3018 	ldr	r3, [fp, #-24]
    1354:	e2832001 	add	r2, r3, #1	; 0x1
    1358:	e55b3011 	ldrb	r3, [fp, #-17]
    135c:	e5c23000 	strb	r3, [r2]
    1360:	e55b3011 	ldrb	r3, [fp, #-17]
    1364:	e1a02003 	mov	r2, r3
    1368:	e51b3018 	ldr	r3, [fp, #-24]
    136c:	e0823003 	add	r3, r2, r3
    1370:	e2832002 	add	r2, r3, #2	; 0x2
    1374:	e3a03000 	mov	r3, #0	; 0x0
    1378:	e5c23000 	strb	r3, [r2]
    137c:	e51b3018 	ldr	r3, [fp, #-24]
    1380:	e2833002 	add	r3, r3, #2	; 0x2
    1384:	e50b301c 	str	r3, [fp, #-28]
    1388:	e51b301c 	ldr	r3, [fp, #-28]
    138c:	e1a00003 	mov	r0, r3
    1390:	e24bd00c 	sub	sp, fp, #12	; 0xc
    1394:	e89da800 	ldmia	sp, {fp, sp, pc}

00001398 <runmenu>:
    1398:	e1a0c00d 	mov	ip, sp
    139c:	e92dd800 	stmdb	sp!, {fp, ip, lr, pc}
    13a0:	e24cb004 	sub	fp, ip, #4	; 0x4
    13a4:	e24dd034 	sub	sp, sp, #52	; 0x34
    13a8:	e50b2034 	str	r2, [fp, #-52]
    13ac:	e50b3038 	str	r3, [fp, #-56]
    13b0:	e1a03000 	mov	r3, r0
    13b4:	e54b302c 	strb	r3, [fp, #-44]
    13b8:	e1a03001 	mov	r3, r1
    13bc:	e54b3030 	strb	r3, [fp, #-48]
    13c0:	e51b3038 	ldr	r3, [fp, #-56]
    13c4:	e2433001 	sub	r3, r3, #1	; 0x1
    13c8:	e50b301c 	str	r3, [fp, #-28]
    13cc:	e3a03014 	mov	r3, #20	; 0x14
    13d0:	e50b3014 	str	r3, [fp, #-20]
    13d4:	e3a0300a 	mov	r3, #10	; 0xa
    13d8:	e50b3014 	str	r3, [fp, #-20]
    13dc:	e3a03000 	mov	r3, #0	; 0x0
    13e0:	e50b3018 	str	r3, [fp, #-24]
    13e4:	ea000019 	b	1450 <runmenu+0xb8>
    13e8:	e3a03000 	mov	r3, #0	; 0x0
    13ec:	e50b3020 	str	r3, [fp, #-32]
    13f0:	ea000002 	b	1400 <runmenu+0x68>
    13f4:	e51b3020 	ldr	r3, [fp, #-32]
    13f8:	e2833001 	add	r3, r3, #1	; 0x1
    13fc:	e50b3020 	str	r3, [fp, #-32]
    1400:	e51b3018 	ldr	r3, [fp, #-24]
    1404:	e1a03103 	mov	r3, r3, lsl #2
    1408:	e1a02003 	mov	r2, r3
    140c:	e51b3034 	ldr	r3, [fp, #-52]
    1410:	e0823003 	add	r3, r2, r3
    1414:	e5932000 	ldr	r2, [r3]
    1418:	e51b3020 	ldr	r3, [fp, #-32]
    141c:	e0823003 	add	r3, r2, r3
    1420:	e5d33000 	ldrb	r3, [r3]
    1424:	e3530000 	cmp	r3, #0	; 0x0
    1428:	1afffff1 	bne	13f4 <runmenu+0x5c>
    142c:	e51b2020 	ldr	r2, [fp, #-32]
    1430:	e51b3014 	ldr	r3, [fp, #-20]
    1434:	e1520003 	cmp	r2, r3
    1438:	da000001 	ble	1444 <runmenu+0xac>
    143c:	e51b3020 	ldr	r3, [fp, #-32]
    1440:	e50b3014 	str	r3, [fp, #-20]
    1444:	e51b3018 	ldr	r3, [fp, #-24]
    1448:	e2833001 	add	r3, r3, #1	; 0x1
    144c:	e50b3018 	str	r3, [fp, #-24]
    1450:	e51b3018 	ldr	r3, [fp, #-24]
    1454:	e1a03103 	mov	r3, r3, lsl #2
    1458:	e1a02003 	mov	r2, r3
    145c:	e51b3034 	ldr	r3, [fp, #-52]
    1460:	e0823003 	add	r3, r2, r3
    1464:	e5933000 	ldr	r3, [r3]
    1468:	e3530000 	cmp	r3, #0	; 0x0
    146c:	1affffdd 	bne	13e8 <runmenu+0x50>
    1470:	e51b3014 	ldr	r3, [fp, #-20]
    1474:	e2833002 	add	r3, r3, #2	; 0x2
    1478:	e50b3014 	str	r3, [fp, #-20]
    147c:	e51b301c 	ldr	r3, [fp, #-28]
    1480:	e3530000 	cmp	r3, #0	; 0x0
    1484:	ba000003 	blt	1498 <runmenu+0x100>
    1488:	e51b201c 	ldr	r2, [fp, #-28]
    148c:	e51b3018 	ldr	r3, [fp, #-24]
    1490:	e1520003 	cmp	r2, r3
    1494:	da000002 	ble	14a4 <runmenu+0x10c>
    1498:	e3a03000 	mov	r3, #0	; 0x0
    149c:	e50b301c 	str	r3, [fp, #-28]
    14a0:	eaffffff 	b	14a4 <runmenu+0x10c>
    14a4:	ebfffe89 	bl	ed0 <cursoroff>
    14a8:	e3a00060 	mov	r0, #96	; 0x60
    14ac:	ebfffeee 	bl	106c <textattr>
    14b0:	e55b302c 	ldrb	r3, [fp, #-44]
    14b4:	e55b2030 	ldrb	r2, [fp, #-48]
    14b8:	e1a00003 	mov	r0, r3
    14bc:	e1a01002 	mov	r1, r2
    14c0:	ebfffef7 	bl	10a4 <gotoxy>
    14c4:	e3a000da 	mov	r0, #218	; 0xda
    14c8:	ebfffdd2 	bl	c18 <_putch>
    14cc:	e3a03000 	mov	r3, #0	; 0x0
    14d0:	e50b3024 	str	r3, [fp, #-36]
    14d4:	ea000004 	b	14ec <runmenu+0x154>
    14d8:	e3a000c4 	mov	r0, #196	; 0xc4
    14dc:	ebfffdcd 	bl	c18 <_putch>
    14e0:	e51b3024 	ldr	r3, [fp, #-36]
    14e4:	e2833001 	add	r3, r3, #1	; 0x1
    14e8:	e50b3024 	str	r3, [fp, #-36]
    14ec:	e51b3014 	ldr	r3, [fp, #-20]
    14f0:	e2832002 	add	r2, r3, #2	; 0x2
    14f4:	e51b3024 	ldr	r3, [fp, #-36]
    14f8:	e1520003 	cmp	r2, r3
    14fc:	cafffff5 	bgt	14d8 <runmenu+0x140>
    1500:	e3a000bf 	mov	r0, #191	; 0xbf
    1504:	ebfffdc3 	bl	c18 <_putch>
    1508:	e3a03000 	mov	r3, #0	; 0x0
    150c:	e50b3024 	str	r3, [fp, #-36]
    1510:	ea000045 	b	162c <runmenu+0x294>
    1514:	e55b102c 	ldrb	r1, [fp, #-44]
    1518:	e51b3024 	ldr	r3, [fp, #-36]
    151c:	e20320ff 	and	r2, r3, #255	; 0xff
    1520:	e55b3030 	ldrb	r3, [fp, #-48]
    1524:	e0823003 	add	r3, r2, r3
    1528:	e20330ff 	and	r3, r3, #255	; 0xff
    152c:	e2833001 	add	r3, r3, #1	; 0x1
    1530:	e20330ff 	and	r3, r3, #255	; 0xff
    1534:	e1a00001 	mov	r0, r1
    1538:	e1a01003 	mov	r1, r3
    153c:	ebfffed8 	bl	10a4 <gotoxy>
    1540:	e3a000b3 	mov	r0, #179	; 0xb3
    1544:	ebfffdb3 	bl	c18 <_putch>
    1548:	e3a00020 	mov	r0, #32	; 0x20
    154c:	ebfffdb1 	bl	c18 <_putch>
    1550:	e51b2024 	ldr	r2, [fp, #-36]
    1554:	e51b301c 	ldr	r3, [fp, #-28]
    1558:	e1520003 	cmp	r2, r3
    155c:	1a000001 	bne	1568 <runmenu+0x1d0>
    1560:	e3a0000b 	mov	r0, #11	; 0xb
    1564:	ebfffec0 	bl	106c <textattr>
    1568:	e3a03000 	mov	r3, #0	; 0x0
    156c:	e50b3010 	str	r3, [fp, #-16]
    1570:	e3a03000 	mov	r3, #0	; 0x0
    1574:	e50b3020 	str	r3, [fp, #-32]
    1578:	ea00001e 	b	15f8 <runmenu+0x260>
    157c:	e51b3010 	ldr	r3, [fp, #-16]
    1580:	e3530000 	cmp	r3, #0	; 0x0
    1584:	0a00000c 	beq	15bc <runmenu+0x224>
    1588:	e51b3010 	ldr	r3, [fp, #-16]
    158c:	e5d33000 	ldrb	r3, [r3]
    1590:	e3530000 	cmp	r3, #0	; 0x0
    1594:	0a000008 	beq	15bc <runmenu+0x224>
    1598:	e51b3010 	ldr	r3, [fp, #-16]
    159c:	e5d33000 	ldrb	r3, [r3]
    15a0:	e1a02003 	mov	r2, r3
    15a4:	e51b3010 	ldr	r3, [fp, #-16]
    15a8:	e2833001 	add	r3, r3, #1	; 0x1
    15ac:	e50b3010 	str	r3, [fp, #-16]
    15b0:	e1a00002 	mov	r0, r2
    15b4:	ebfffd97 	bl	c18 <_putch>
    15b8:	ea000001 	b	15c4 <runmenu+0x22c>
    15bc:	e3a00020 	mov	r0, #32	; 0x20
    15c0:	ebfffd94 	bl	c18 <_putch>
    15c4:	e51b3010 	ldr	r3, [fp, #-16]
    15c8:	e3530000 	cmp	r3, #0	; 0x0
    15cc:	1a000006 	bne	15ec <runmenu+0x254>
    15d0:	e51b3024 	ldr	r3, [fp, #-36]
    15d4:	e1a03103 	mov	r3, r3, lsl #2
    15d8:	e1a02003 	mov	r2, r3
    15dc:	e51b3034 	ldr	r3, [fp, #-52]
    15e0:	e0823003 	add	r3, r2, r3
    15e4:	e5933000 	ldr	r3, [r3]
    15e8:	e50b3010 	str	r3, [fp, #-16]
    15ec:	e51b3020 	ldr	r3, [fp, #-32]
    15f0:	e2833001 	add	r3, r3, #1	; 0x1
    15f4:	e50b3020 	str	r3, [fp, #-32]
    15f8:	e51b2020 	ldr	r2, [fp, #-32]
    15fc:	e51b3014 	ldr	r3, [fp, #-20]
    1600:	e1520003 	cmp	r2, r3
    1604:	baffffdc 	blt	157c <runmenu+0x1e4>
    1608:	e3a00060 	mov	r0, #96	; 0x60
    160c:	ebfffe96 	bl	106c <textattr>
    1610:	e3a00020 	mov	r0, #32	; 0x20
    1614:	ebfffd7f 	bl	c18 <_putch>
    1618:	e3a000b3 	mov	r0, #179	; 0xb3
    161c:	ebfffd7d 	bl	c18 <_putch>
    1620:	e51b3024 	ldr	r3, [fp, #-36]
    1624:	e2833001 	add	r3, r3, #1	; 0x1
    1628:	e50b3024 	str	r3, [fp, #-36]
    162c:	e51b2024 	ldr	r2, [fp, #-36]
    1630:	e51b3018 	ldr	r3, [fp, #-24]
    1634:	e1520003 	cmp	r2, r3
    1638:	baffffb5 	blt	1514 <runmenu+0x17c>
    163c:	e55b102c 	ldrb	r1, [fp, #-44]
    1640:	e51b3018 	ldr	r3, [fp, #-24]
    1644:	e20320ff 	and	r2, r3, #255	; 0xff
    1648:	e55b3030 	ldrb	r3, [fp, #-48]
    164c:	e0823003 	add	r3, r2, r3
    1650:	e20330ff 	and	r3, r3, #255	; 0xff
    1654:	e2833001 	add	r3, r3, #1	; 0x1
    1658:	e20330ff 	and	r3, r3, #255	; 0xff
    165c:	e1a00001 	mov	r0, r1
    1660:	e1a01003 	mov	r1, r3
    1664:	ebfffe8e 	bl	10a4 <gotoxy>
    1668:	e3a000c0 	mov	r0, #192	; 0xc0
    166c:	ebfffd69 	bl	c18 <_putch>
    1670:	e3a03000 	mov	r3, #0	; 0x0
    1674:	e50b3024 	str	r3, [fp, #-36]
    1678:	ea000004 	b	1690 <runmenu+0x2f8>
    167c:	e3a000c4 	mov	r0, #196	; 0xc4
    1680:	ebfffd64 	bl	c18 <_putch>
    1684:	e51b3024 	ldr	r3, [fp, #-36]
    1688:	e2833001 	add	r3, r3, #1	; 0x1
    168c:	e50b3024 	str	r3, [fp, #-36]
    1690:	e51b3014 	ldr	r3, [fp, #-20]
    1694:	e2832002 	add	r2, r3, #2	; 0x2
    1698:	e51b3024 	ldr	r3, [fp, #-36]
    169c:	e1520003 	cmp	r2, r3
    16a0:	cafffff5 	bgt	167c <runmenu+0x2e4>
    16a4:	e3a000d9 	mov	r0, #217	; 0xd9
    16a8:	ebfffd5a 	bl	c18 <_putch>
    16ac:	ebfffd71 	bl	c78 <_kbhit>
    16b0:	e1a03000 	mov	r3, r0
    16b4:	e3530000 	cmp	r3, #0	; 0x0
    16b8:	0afffffb 	beq	16ac <runmenu+0x314>
    16bc:	ebfffd6d 	bl	c78 <_kbhit>
    16c0:	e1a03000 	mov	r3, r0
    16c4:	e3530000 	cmp	r3, #0	; 0x0
    16c8:	0affff75 	beq	14a4 <runmenu+0x10c>
    16cc:	ebfffd72 	bl	c9c <_getch>
    16d0:	e1a03000 	mov	r3, r0
    16d4:	e50b3028 	str	r3, [fp, #-40]
    16d8:	e51b3028 	ldr	r3, [fp, #-40]
    16dc:	e50b3040 	str	r3, [fp, #-64]
    16e0:	e51b3040 	ldr	r3, [fp, #-64]
    16e4:	e353001b 	cmp	r3, #27	; 0x1b
    16e8:	0a000022 	beq	1778 <runmenu+0x3e0>
    16ec:	e51b3040 	ldr	r3, [fp, #-64]
    16f0:	e353001b 	cmp	r3, #27	; 0x1b
    16f4:	ca000003 	bgt	1708 <runmenu+0x370>
    16f8:	e51b3040 	ldr	r3, [fp, #-64]
    16fc:	e353000a 	cmp	r3, #10	; 0xa
    1700:	0a000020 	beq	1788 <runmenu+0x3f0>
    1704:	eaffff66 	b	14a4 <runmenu+0x10c>
    1708:	e51b3040 	ldr	r3, [fp, #-64]
    170c:	e3530f52 	cmp	r3, #328	; 0x148
    1710:	0a000003 	beq	1724 <runmenu+0x38c>
    1714:	e51b3040 	ldr	r3, [fp, #-64]
    1718:	e3530e15 	cmp	r3, #336	; 0x150
    171c:	0a00000b 	beq	1750 <runmenu+0x3b8>
    1720:	eaffff5f 	b	14a4 <runmenu+0x10c>
    1724:	e51b301c 	ldr	r3, [fp, #-28]
    1728:	e3530000 	cmp	r3, #0	; 0x0
    172c:	da000003 	ble	1740 <runmenu+0x3a8>
    1730:	e51b301c 	ldr	r3, [fp, #-28]
    1734:	e2433001 	sub	r3, r3, #1	; 0x1
    1738:	e50b301c 	str	r3, [fp, #-28]
    173c:	eaffff58 	b	14a4 <runmenu+0x10c>
    1740:	e51b3018 	ldr	r3, [fp, #-24]
    1744:	e2433001 	sub	r3, r3, #1	; 0x1
    1748:	e50b301c 	str	r3, [fp, #-28]
    174c:	eaffff54 	b	14a4 <runmenu+0x10c>
    1750:	e51b301c 	ldr	r3, [fp, #-28]
    1754:	e2833001 	add	r3, r3, #1	; 0x1
    1758:	e50b301c 	str	r3, [fp, #-28]
    175c:	e51b301c 	ldr	r3, [fp, #-28]
    1760:	e1a00003 	mov	r0, r3
    1764:	e51b1018 	ldr	r1, [fp, #-24]
    1768:	eb0000dd 	bl	1ae4 <__modsi3>
    176c:	e1a03000 	mov	r3, r0
    1770:	e50b301c 	str	r3, [fp, #-28]
    1774:	eaffff4a 	b	14a4 <runmenu+0x10c>
    1778:	ebfffdc6 	bl	e98 <cursoron>
    177c:	e3a03000 	mov	r3, #0	; 0x0
    1780:	e50b303c 	str	r3, [fp, #-60]
    1784:	ea000003 	b	1798 <runmenu+0x400>
    1788:	ebfffdc2 	bl	e98 <cursoron>
    178c:	e51b301c 	ldr	r3, [fp, #-28]
    1790:	e2833001 	add	r3, r3, #1	; 0x1
    1794:	e50b303c 	str	r3, [fp, #-60]
    1798:	e51b303c 	ldr	r3, [fp, #-60]
    179c:	e1a00003 	mov	r0, r3
    17a0:	e24bd00c 	sub	sp, fp, #12	; 0xc
    17a4:	e89da800 	ldmia	sp, {fp, sp, pc}

000017a8 <drawfkeys>:
    17a8:	e1a0c00d 	mov	ip, sp
    17ac:	e92dd800 	stmdb	sp!, {fp, ip, lr, pc}
    17b0:	e24cb004 	sub	fp, ip, #4	; 0x4
    17b4:	e24dd014 	sub	sp, sp, #20	; 0x14
    17b8:	e50b001c 	str	r0, [fp, #-28]
    17bc:	e3a00001 	mov	r0, #1	; 0x1
    17c0:	e3a01019 	mov	r1, #25	; 0x19
    17c4:	ebfffe36 	bl	10a4 <gotoxy>
    17c8:	e3a03000 	mov	r3, #0	; 0x0
    17cc:	e50b3014 	str	r3, [fp, #-20]
    17d0:	ea00004d 	b	190c <drawfkeys+0x164>
    17d4:	e3a0000f 	mov	r0, #15	; 0xf
    17d8:	ebfffdca 	bl	f08 <textcolor>
    17dc:	e3a00000 	mov	r0, #0	; 0x0
    17e0:	ebfffdfc 	bl	fd8 <textbackground>
    17e4:	e51b3014 	ldr	r3, [fp, #-20]
    17e8:	e3530000 	cmp	r3, #0	; 0x0
    17ec:	0a000001 	beq	17f8 <drawfkeys+0x50>
    17f0:	e3a00020 	mov	r0, #32	; 0x20
    17f4:	ebfffd07 	bl	c18 <_putch>
    17f8:	e51b3014 	ldr	r3, [fp, #-20]
    17fc:	e3530009 	cmp	r3, #9	; 0x9
    1800:	1a000004 	bne	1818 <drawfkeys+0x70>
    1804:	e3a00031 	mov	r0, #49	; 0x31
    1808:	ebfffd02 	bl	c18 <_putch>
    180c:	e3a00030 	mov	r0, #48	; 0x30
    1810:	ebfffd00 	bl	c18 <_putch>
    1814:	ea000013 	b	1868 <drawfkeys+0xc0>
    1818:	e51b1014 	ldr	r1, [fp, #-20]
    181c:	e59f30fc 	ldr	r3, [pc, #252]	; 1920 <.text+0x1920>
    1820:	e0c32391 	smull	r2, r3, r1, r3
    1824:	e1a02143 	mov	r2, r3, asr #2
    1828:	e1a03fc1 	mov	r3, r1, asr #31
    182c:	e0632002 	rsb	r2, r3, r2
    1830:	e50b2020 	str	r2, [fp, #-32]
    1834:	e51b3020 	ldr	r3, [fp, #-32]
    1838:	e1a03103 	mov	r3, r3, lsl #2
    183c:	e51b2020 	ldr	r2, [fp, #-32]
    1840:	e0833002 	add	r3, r3, r2
    1844:	e1a03083 	mov	r3, r3, lsl #1
    1848:	e0631001 	rsb	r1, r3, r1
    184c:	e50b1020 	str	r1, [fp, #-32]
    1850:	e51b2020 	ldr	r2, [fp, #-32]
    1854:	e20230ff 	and	r3, r2, #255	; 0xff
    1858:	e2833031 	add	r3, r3, #49	; 0x31
    185c:	e20330ff 	and	r3, r3, #255	; 0xff
    1860:	e1a00003 	mov	r0, r3
    1864:	ebfffceb 	bl	c18 <_putch>
    1868:	e3a00000 	mov	r0, #0	; 0x0
    186c:	ebfffda5 	bl	f08 <textcolor>
    1870:	e3a00006 	mov	r0, #6	; 0x6
    1874:	ebfffdd7 	bl	fd8 <textbackground>
    1878:	e51b3014 	ldr	r3, [fp, #-20]
    187c:	e1a03103 	mov	r3, r3, lsl #2
    1880:	e1a02003 	mov	r2, r3
    1884:	e51b301c 	ldr	r3, [fp, #-28]
    1888:	e0823003 	add	r3, r2, r3
    188c:	e5933000 	ldr	r3, [r3]
    1890:	e50b3018 	str	r3, [fp, #-24]
    1894:	e3a03000 	mov	r3, #0	; 0x0
    1898:	e50b3010 	str	r3, [fp, #-16]
    189c:	ea000014 	b	18f4 <drawfkeys+0x14c>
    18a0:	e51b3018 	ldr	r3, [fp, #-24]
    18a4:	e3530000 	cmp	r3, #0	; 0x0
    18a8:	0a00000c 	beq	18e0 <drawfkeys+0x138>
    18ac:	e51b3018 	ldr	r3, [fp, #-24]
    18b0:	e5d33000 	ldrb	r3, [r3]
    18b4:	e3530000 	cmp	r3, #0	; 0x0
    18b8:	0a000008 	beq	18e0 <drawfkeys+0x138>
    18bc:	e51b3018 	ldr	r3, [fp, #-24]
    18c0:	e5d33000 	ldrb	r3, [r3]
    18c4:	e1a02003 	mov	r2, r3
    18c8:	e51b3018 	ldr	r3, [fp, #-24]
    18cc:	e2833001 	add	r3, r3, #1	; 0x1
    18d0:	e50b3018 	str	r3, [fp, #-24]
    18d4:	e1a00002 	mov	r0, r2
    18d8:	ebfffcce 	bl	c18 <_putch>
    18dc:	ea000001 	b	18e8 <drawfkeys+0x140>
    18e0:	e3a00020 	mov	r0, #32	; 0x20
    18e4:	ebfffccb 	bl	c18 <_putch>
    18e8:	e51b3010 	ldr	r3, [fp, #-16]
    18ec:	e2833001 	add	r3, r3, #1	; 0x1
    18f0:	e50b3010 	str	r3, [fp, #-16]
    18f4:	e51b3010 	ldr	r3, [fp, #-16]
    18f8:	e3530005 	cmp	r3, #5	; 0x5
    18fc:	daffffe7 	ble	18a0 <drawfkeys+0xf8>
    1900:	e51b3014 	ldr	r3, [fp, #-20]
    1904:	e2833001 	add	r3, r3, #1	; 0x1
    1908:	e50b3014 	str	r3, [fp, #-20]
    190c:	e51b3014 	ldr	r3, [fp, #-20]
    1910:	e3530009 	cmp	r3, #9	; 0x9
    1914:	daffffae 	ble	17d4 <drawfkeys+0x2c>
    1918:	e24bd00c 	sub	sp, fp, #12	; 0xc
    191c:	e89da800 	ldmia	sp, {fp, sp, pc}
    1920:	66666667 	strvsbt	r6, [r6], -r7, ror #12

00001924 <drawframe>:
    1924:	e1a0c00d 	mov	ip, sp
    1928:	e92dd800 	stmdb	sp!, {fp, ip, lr, pc}
    192c:	e24cb004 	sub	fp, ip, #4	; 0x4
    1930:	e24dd018 	sub	sp, sp, #24	; 0x18
    1934:	e50b0018 	str	r0, [fp, #-24]
    1938:	e50b101c 	str	r1, [fp, #-28]
    193c:	e50b2020 	str	r2, [fp, #-32]
    1940:	e50b3024 	str	r3, [fp, #-36]
    1944:	e59b0004 	ldr	r0, [fp, #4]
    1948:	ebfffdc7 	bl	106c <textattr>
    194c:	e51b3018 	ldr	r3, [fp, #-24]
    1950:	e20330ff 	and	r3, r3, #255	; 0xff
    1954:	e1a02003 	mov	r2, r3
    1958:	e51b301c 	ldr	r3, [fp, #-28]
    195c:	e20330ff 	and	r3, r3, #255	; 0xff
    1960:	e1a00002 	mov	r0, r2
    1964:	e1a01003 	mov	r1, r3
    1968:	ebfffdcd 	bl	10a4 <gotoxy>
    196c:	e3a000da 	mov	r0, #218	; 0xda
    1970:	ebfffca8 	bl	c18 <_putch>
    1974:	e3a03000 	mov	r3, #0	; 0x0
    1978:	e50b3014 	str	r3, [fp, #-20]
    197c:	ea000004 	b	1994 <drawframe+0x70>
    1980:	e3a000c4 	mov	r0, #196	; 0xc4
    1984:	ebfffca3 	bl	c18 <_putch>
    1988:	e51b3014 	ldr	r3, [fp, #-20]
    198c:	e2833001 	add	r3, r3, #1	; 0x1
    1990:	e50b3014 	str	r3, [fp, #-20]
    1994:	e51b3020 	ldr	r3, [fp, #-32]
    1998:	e2832002 	add	r2, r3, #2	; 0x2
    199c:	e51b3014 	ldr	r3, [fp, #-20]
    19a0:	e1520003 	cmp	r2, r3
    19a4:	cafffff5 	bgt	1980 <drawframe+0x5c>
    19a8:	e3a000bf 	mov	r0, #191	; 0xbf
    19ac:	ebfffc99 	bl	c18 <_putch>
    19b0:	e3a03000 	mov	r3, #0	; 0x0
    19b4:	e50b3014 	str	r3, [fp, #-20]
    19b8:	ea000024 	b	1a50 <drawframe+0x12c>
    19bc:	e51b3018 	ldr	r3, [fp, #-24]
    19c0:	e20330ff 	and	r3, r3, #255	; 0xff
    19c4:	e1a01003 	mov	r1, r3
    19c8:	e51b301c 	ldr	r3, [fp, #-28]
    19cc:	e20320ff 	and	r2, r3, #255	; 0xff
    19d0:	e51b3014 	ldr	r3, [fp, #-20]
    19d4:	e20330ff 	and	r3, r3, #255	; 0xff
    19d8:	e0823003 	add	r3, r2, r3
    19dc:	e20330ff 	and	r3, r3, #255	; 0xff
    19e0:	e2833001 	add	r3, r3, #1	; 0x1
    19e4:	e20330ff 	and	r3, r3, #255	; 0xff
    19e8:	e1a00001 	mov	r0, r1
    19ec:	e1a01003 	mov	r1, r3
    19f0:	ebfffdab 	bl	10a4 <gotoxy>
    19f4:	e3a000b3 	mov	r0, #179	; 0xb3
    19f8:	ebfffc86 	bl	c18 <_putch>
    19fc:	e3a00020 	mov	r0, #32	; 0x20
    1a00:	ebfffc84 	bl	c18 <_putch>
    1a04:	e3a03000 	mov	r3, #0	; 0x0
    1a08:	e50b3010 	str	r3, [fp, #-16]
    1a0c:	ea000004 	b	1a24 <drawframe+0x100>
    1a10:	e3a00020 	mov	r0, #32	; 0x20
    1a14:	ebfffc7f 	bl	c18 <_putch>
    1a18:	e51b3010 	ldr	r3, [fp, #-16]
    1a1c:	e2833001 	add	r3, r3, #1	; 0x1
    1a20:	e50b3010 	str	r3, [fp, #-16]
    1a24:	e51b2010 	ldr	r2, [fp, #-16]
    1a28:	e51b3020 	ldr	r3, [fp, #-32]
    1a2c:	e1520003 	cmp	r2, r3
    1a30:	bafffff6 	blt	1a10 <drawframe+0xec>
    1a34:	e3a00020 	mov	r0, #32	; 0x20
    1a38:	ebfffc76 	bl	c18 <_putch>
    1a3c:	e3a000b3 	mov	r0, #179	; 0xb3
    1a40:	ebfffc74 	bl	c18 <_putch>
    1a44:	e51b3014 	ldr	r3, [fp, #-20]
    1a48:	e2833001 	add	r3, r3, #1	; 0x1
    1a4c:	e50b3014 	str	r3, [fp, #-20]
    1a50:	e51b2014 	ldr	r2, [fp, #-20]
    1a54:	e51b3024 	ldr	r3, [fp, #-36]
    1a58:	e1520003 	cmp	r2, r3
    1a5c:	baffffd6 	blt	19bc <drawframe+0x98>
    1a60:	e51b3018 	ldr	r3, [fp, #-24]
    1a64:	e20330ff 	and	r3, r3, #255	; 0xff
    1a68:	e1a01003 	mov	r1, r3
    1a6c:	e51b301c 	ldr	r3, [fp, #-28]
    1a70:	e20320ff 	and	r2, r3, #255	; 0xff
    1a74:	e51b3024 	ldr	r3, [fp, #-36]
    1a78:	e20330ff 	and	r3, r3, #255	; 0xff
    1a7c:	e0823003 	add	r3, r2, r3
    1a80:	e20330ff 	and	r3, r3, #255	; 0xff
    1a84:	e2833001 	add	r3, r3, #1	; 0x1
    1a88:	e20330ff 	and	r3, r3, #255	; 0xff
    1a8c:	e1a00001 	mov	r0, r1
    1a90:	e1a01003 	mov	r1, r3
    1a94:	ebfffd82 	bl	10a4 <gotoxy>
    1a98:	e3a000c0 	mov	r0, #192	; 0xc0
    1a9c:	ebfffc5d 	bl	c18 <_putch>
    1aa0:	e3a03000 	mov	r3, #0	; 0x0
    1aa4:	e50b3014 	str	r3, [fp, #-20]
    1aa8:	ea000004 	b	1ac0 <drawframe+0x19c>
    1aac:	e3a000c4 	mov	r0, #196	; 0xc4
    1ab0:	ebfffc58 	bl	c18 <_putch>
    1ab4:	e51b3014 	ldr	r3, [fp, #-20]
    1ab8:	e2833001 	add	r3, r3, #1	; 0x1
    1abc:	e50b3014 	str	r3, [fp, #-20]
    1ac0:	e51b3020 	ldr	r3, [fp, #-32]
    1ac4:	e2832002 	add	r2, r3, #2	; 0x2
    1ac8:	e51b3014 	ldr	r3, [fp, #-20]
    1acc:	e1520003 	cmp	r2, r3
    1ad0:	cafffff5 	bgt	1aac <drawframe+0x188>
    1ad4:	e3a000d9 	mov	r0, #217	; 0xd9
    1ad8:	ebfffc4e 	bl	c18 <_putch>
    1adc:	e24bd00c 	sub	sp, fp, #12	; 0xc
    1ae0:	e89da800 	ldmia	sp, {fp, sp, pc}

00001ae4 <__modsi3>:
    1ae4:	e3510000 	cmp	r1, #0	; 0x0
    1ae8:	0a000032 	beq	1bb8 <__modsi3+0xd4>
    1aec:	42611000 	rsbmi	r1, r1, #0	; 0x0
    1af0:	e1b0c000 	movs	ip, r0
    1af4:	42600000 	rsbmi	r0, r0, #0	; 0x0
    1af8:	e2512001 	subs	r2, r1, #1	; 0x1
    1afc:	11500001 	cmpne	r0, r1
    1b00:	03a00000 	moveq	r0, #0	; 0x0
    1b04:	81110002 	tsthi	r1, r2
    1b08:	00000002 	andeq	r0, r0, r2
    1b0c:	9a000026 	bls	1bac <__modsi3+0xc8>
    1b10:	e3a02000 	mov	r2, #0	; 0x0
    1b14:	e3510201 	cmp	r1, #268435456	; 0x10000000
    1b18:	31510000 	cmpcc	r1, r0
    1b1c:	31a01201 	movcc	r1, r1, lsl #4
    1b20:	32822004 	addcc	r2, r2, #4	; 0x4
    1b24:	3afffffa 	bcc	1b14 <__modsi3+0x30>
    1b28:	e3510102 	cmp	r1, #-2147483648	; 0x80000000
    1b2c:	31510000 	cmpcc	r1, r0
    1b30:	31a01081 	movcc	r1, r1, lsl #1
    1b34:	32822001 	addcc	r2, r2, #1	; 0x1
    1b38:	3afffffa 	bcc	1b28 <__modsi3+0x44>
    1b3c:	e2522003 	subs	r2, r2, #3	; 0x3
    1b40:	ba00000e 	blt	1b80 <__modsi3+0x9c>
    1b44:	e1500001 	cmp	r0, r1
    1b48:	20400001 	subcs	r0, r0, r1
    1b4c:	e15000a1 	cmp	r0, r1, lsr #1
    1b50:	204000a1 	subcs	r0, r0, r1, lsr #1
    1b54:	e1500121 	cmp	r0, r1, lsr #2
    1b58:	20400121 	subcs	r0, r0, r1, lsr #2
    1b5c:	e15001a1 	cmp	r0, r1, lsr #3
    1b60:	204001a1 	subcs	r0, r0, r1, lsr #3
    1b64:	e3500001 	cmp	r0, #1	; 0x1
    1b68:	e1a01221 	mov	r1, r1, lsr #4
    1b6c:	a2522004 	subges	r2, r2, #4	; 0x4
    1b70:	aafffff3 	bge	1b44 <__modsi3+0x60>
    1b74:	e3120003 	tst	r2, #3	; 0x3
    1b78:	13300000 	teqne	r0, #0	; 0x0
    1b7c:	0a00000a 	beq	1bac <__modsi3+0xc8>
    1b80:	e3720002 	cmn	r2, #2	; 0x2
    1b84:	ba000006 	blt	1ba4 <__modsi3+0xc0>
    1b88:	0a000002 	beq	1b98 <__modsi3+0xb4>
    1b8c:	e1500001 	cmp	r0, r1
    1b90:	20400001 	subcs	r0, r0, r1
    1b94:	e1a010a1 	mov	r1, r1, lsr #1
    1b98:	e1500001 	cmp	r0, r1
    1b9c:	20400001 	subcs	r0, r0, r1
    1ba0:	e1a010a1 	mov	r1, r1, lsr #1
    1ba4:	e1500001 	cmp	r0, r1
    1ba8:	20400001 	subcs	r0, r0, r1
    1bac:	e35c0000 	cmp	ip, #0	; 0x0
    1bb0:	42600000 	rsbmi	r0, r0, #0	; 0x0
    1bb4:	e12fff1e 	bx	lr
    1bb8:	e52de008 	str	lr, [sp, #-8]!
    1bbc:	eb000001 	bl	1bc8 <__aeabi_idiv0>
    1bc0:	e3a00000 	mov	r0, #0	; 0x0
    1bc4:	e49df008 	ldr	pc, [sp], #8

00001bc8 <__aeabi_idiv0>:
    1bc8:	e12fff1e 	bx	lr